Archive member included to satisfy reference by file (symbol)

/home/yaohui.c/work/afl-pt/afl-2.42b/pt_mode/glibc-2.19/pt-build/libc_pic.a(check_fds.os)
                              /home/yaohui.c/work/afl-pt/afl-2.42b/pt_mode/glibc-2.19/pt-build/elf/dl-allobjs.os (__libc_check_standard_fds)
/home/yaohui.c/work/afl-pt/afl-2.42b/pt_mode/glibc-2.19/pt-build/libc_pic.a(errno.os)
                              /home/yaohui.c/work/afl-pt/afl-2.42b/pt_mode/glibc-2.19/pt-build/libc_pic.a(check_fds.os) (__libc_errno)
/home/yaohui.c/work/afl-pt/afl-2.42b/pt_mode/glibc-2.19/pt-build/libc_pic.a(setjmp.os)
                              /home/yaohui.c/work/afl-pt/afl-2.42b/pt_mode/glibc-2.19/pt-build/elf/dl-allobjs.os (__sigsetjmp)
/home/yaohui.c/work/afl-pt/afl-2.42b/pt_mode/glibc-2.19/pt-build/libc_pic.a(__longjmp.os)
                              /home/yaohui.c/work/afl-pt/afl-2.42b/pt_mode/glibc-2.19/pt-build/elf/dl-allobjs.os (__longjmp)
/home/yaohui.c/work/afl-pt/afl-2.42b/pt_mode/glibc-2.19/pt-build/libc_pic.a(strchr.os)
                              /home/yaohui.c/work/afl-pt/afl-2.42b/pt_mode/glibc-2.19/pt-build/elf/dl-allobjs.os (strchr)
/home/yaohui.c/work/afl-pt/afl-2.42b/pt_mode/glibc-2.19/pt-build/libc_pic.a(strcmp.os)
                              /home/yaohui.c/work/afl-pt/afl-2.42b/pt_mode/glibc-2.19/pt-build/elf/dl-allobjs.os (strcmp)
/home/yaohui.c/work/afl-pt/afl-2.42b/pt_mode/glibc-2.19/pt-build/libc_pic.a(strcpy.os)
                              /home/yaohui.c/work/afl-pt/afl-2.42b/pt_mode/glibc-2.19/pt-build/elf/dl-allobjs.os (strcpy)
/home/yaohui.c/work/afl-pt/afl-2.42b/pt_mode/glibc-2.19/pt-build/libc_pic.a(strlen.os)
                              /home/yaohui.c/work/afl-pt/afl-2.42b/pt_mode/glibc-2.19/pt-build/elf/dl-allobjs.os (strlen)
/home/yaohui.c/work/afl-pt/afl-2.42b/pt_mode/glibc-2.19/pt-build/libc_pic.a(strnlen.os)
                              /home/yaohui.c/work/afl-pt/afl-2.42b/pt_mode/glibc-2.19/pt-build/elf/dl-allobjs.os (strnlen)
/home/yaohui.c/work/afl-pt/afl-2.42b/pt_mode/glibc-2.19/pt-build/libc_pic.a(memchr.os)
                              /home/yaohui.c/work/afl-pt/afl-2.42b/pt_mode/glibc-2.19/pt-build/elf/dl-allobjs.os (memchr)
/home/yaohui.c/work/afl-pt/afl-2.42b/pt_mode/glibc-2.19/pt-build/libc_pic.a(memcmp.os)
                              /home/yaohui.c/work/afl-pt/afl-2.42b/pt_mode/glibc-2.19/pt-build/elf/dl-allobjs.os (memcmp)
/home/yaohui.c/work/afl-pt/afl-2.42b/pt_mode/glibc-2.19/pt-build/libc_pic.a(memmove.os)
                              /home/yaohui.c/work/afl-pt/afl-2.42b/pt_mode/glibc-2.19/pt-build/elf/dl-allobjs.os (memmove)
/home/yaohui.c/work/afl-pt/afl-2.42b/pt_mode/glibc-2.19/pt-build/libc_pic.a(memset.os)
                              /home/yaohui.c/work/afl-pt/afl-2.42b/pt_mode/glibc-2.19/pt-build/elf/dl-allobjs.os (memset)
/home/yaohui.c/work/afl-pt/afl-2.42b/pt_mode/glibc-2.19/pt-build/libc_pic.a(mempcpy.os)
                              /home/yaohui.c/work/afl-pt/afl-2.42b/pt_mode/glibc-2.19/pt-build/elf/dl-allobjs.os (mempcpy)
/home/yaohui.c/work/afl-pt/afl-2.42b/pt_mode/glibc-2.19/pt-build/libc_pic.a(stpcpy.os)
                              /home/yaohui.c/work/afl-pt/afl-2.42b/pt_mode/glibc-2.19/pt-build/elf/dl-allobjs.os (stpcpy)
/home/yaohui.c/work/afl-pt/afl-2.42b/pt_mode/glibc-2.19/pt-build/libc_pic.a(memcpy.os)
                              (memcpy@@GLIBC_2.14)
/home/yaohui.c/work/afl-pt/afl-2.42b/pt_mode/glibc-2.19/pt-build/libc_pic.a(wordcopy.os)
                              /home/yaohui.c/work/afl-pt/afl-2.42b/pt_mode/glibc-2.19/pt-build/libc_pic.a(memmove.os) (_wordcopy_fwd_aligned)
/home/yaohui.c/work/afl-pt/afl-2.42b/pt_mode/glibc-2.19/pt-build/libc_pic.a(rawmemchr.os)
                              /home/yaohui.c/work/afl-pt/afl-2.42b/pt_mode/glibc-2.19/pt-build/elf/dl-allobjs.os (rawmemchr)
/home/yaohui.c/work/afl-pt/afl-2.42b/pt_mode/glibc-2.19/pt-build/libc_pic.a(strcmp-ssse3.os)
                              /home/yaohui.c/work/afl-pt/afl-2.42b/pt_mode/glibc-2.19/pt-build/libc_pic.a(strcmp.os) (__strcmp_ssse3)
/home/yaohui.c/work/afl-pt/afl-2.42b/pt_mode/glibc-2.19/pt-build/libc_pic.a(strcmp-sse2-unaligned.os)
                              /home/yaohui.c/work/afl-pt/afl-2.42b/pt_mode/glibc-2.19/pt-build/libc_pic.a(strcmp.os) (__strcmp_sse2_unaligned)
/home/yaohui.c/work/afl-pt/afl-2.42b/pt_mode/glibc-2.19/pt-build/libc_pic.a(memcmp-sse4.os)
                              /home/yaohui.c/work/afl-pt/afl-2.42b/pt_mode/glibc-2.19/pt-build/libc_pic.a(memcmp.os) (__memcmp_sse4_1)
/home/yaohui.c/work/afl-pt/afl-2.42b/pt_mode/glibc-2.19/pt-build/libc_pic.a(memcpy-ssse3.os)
                              /home/yaohui.c/work/afl-pt/afl-2.42b/pt_mode/glibc-2.19/pt-build/libc_pic.a(memcpy.os) (__memcpy_ssse3)
/home/yaohui.c/work/afl-pt/afl-2.42b/pt_mode/glibc-2.19/pt-build/libc_pic.a(memcpy-sse2-unaligned.os)
                              /home/yaohui.c/work/afl-pt/afl-2.42b/pt_mode/glibc-2.19/pt-build/libc_pic.a(memcpy.os) (__memcpy_sse2_unaligned)
/home/yaohui.c/work/afl-pt/afl-2.42b/pt_mode/glibc-2.19/pt-build/libc_pic.a(mempcpy-ssse3.os)
                              /home/yaohui.c/work/afl-pt/afl-2.42b/pt_mode/glibc-2.19/pt-build/libc_pic.a(mempcpy.os) (__mempcpy_ssse3)
/home/yaohui.c/work/afl-pt/afl-2.42b/pt_mode/glibc-2.19/pt-build/libc_pic.a(memmove-ssse3.os)
                              /home/yaohui.c/work/afl-pt/afl-2.42b/pt_mode/glibc-2.19/pt-build/libc_pic.a(memmove.os) (__memmove_ssse3)
/home/yaohui.c/work/afl-pt/afl-2.42b/pt_mode/glibc-2.19/pt-build/libc_pic.a(mempcpy-ssse3-back.os)
                              /home/yaohui.c/work/afl-pt/afl-2.42b/pt_mode/glibc-2.19/pt-build/libc_pic.a(mempcpy.os) (__mempcpy_ssse3_back)
/home/yaohui.c/work/afl-pt/afl-2.42b/pt_mode/glibc-2.19/pt-build/libc_pic.a(memmove-ssse3-back.os)
                              /home/yaohui.c/work/afl-pt/afl-2.42b/pt_mode/glibc-2.19/pt-build/libc_pic.a(memmove.os) (__memmove_ssse3_back)
/home/yaohui.c/work/afl-pt/afl-2.42b/pt_mode/glibc-2.19/pt-build/libc_pic.a(strcpy-ssse3.os)
                              /home/yaohui.c/work/afl-pt/afl-2.42b/pt_mode/glibc-2.19/pt-build/libc_pic.a(strcpy.os) (__strcpy_ssse3)
/home/yaohui.c/work/afl-pt/afl-2.42b/pt_mode/glibc-2.19/pt-build/libc_pic.a(stpcpy-ssse3.os)
                              /home/yaohui.c/work/afl-pt/afl-2.42b/pt_mode/glibc-2.19/pt-build/libc_pic.a(stpcpy.os) (__stpcpy_ssse3)
/home/yaohui.c/work/afl-pt/afl-2.42b/pt_mode/glibc-2.19/pt-build/libc_pic.a(strcpy-sse2-unaligned.os)
                              /home/yaohui.c/work/afl-pt/afl-2.42b/pt_mode/glibc-2.19/pt-build/libc_pic.a(strcpy.os) (__strcpy_sse2_unaligned)
/home/yaohui.c/work/afl-pt/afl-2.42b/pt_mode/glibc-2.19/pt-build/libc_pic.a(stpcpy-sse2-unaligned.os)
                              /home/yaohui.c/work/afl-pt/afl-2.42b/pt_mode/glibc-2.19/pt-build/libc_pic.a(stpcpy.os) (__stpcpy_sse2_unaligned)
/home/yaohui.c/work/afl-pt/afl-2.42b/pt_mode/glibc-2.19/pt-build/libc_pic.a(strchr-sse2-no-bsf.os)
                              /home/yaohui.c/work/afl-pt/afl-2.42b/pt_mode/glibc-2.19/pt-build/libc_pic.a(strchr.os) (__strchr_sse2_no_bsf)
/home/yaohui.c/work/afl-pt/afl-2.42b/pt_mode/glibc-2.19/pt-build/libc_pic.a(memcmp-ssse3.os)
                              /home/yaohui.c/work/afl-pt/afl-2.42b/pt_mode/glibc-2.19/pt-build/libc_pic.a(memcmp.os) (__memcmp_ssse3)
/home/yaohui.c/work/afl-pt/afl-2.42b/pt_mode/glibc-2.19/pt-build/libc_pic.a(cacheinfo.os)
                              /home/yaohui.c/work/afl-pt/afl-2.42b/pt_mode/glibc-2.19/pt-build/libc_pic.a(mempcpy-ssse3-back.os) (__x86_data_cache_size)
/home/yaohui.c/work/afl-pt/afl-2.42b/pt_mode/glibc-2.19/pt-build/libc_pic.a(closedir.os)
                              /home/yaohui.c/work/afl-pt/afl-2.42b/pt_mode/glibc-2.19/pt-build/elf/dl-allobjs.os (__closedir)
/home/yaohui.c/work/afl-pt/afl-2.42b/pt_mode/glibc-2.19/pt-build/libc_pic.a(readdir.os)
                              /home/yaohui.c/work/afl-pt/afl-2.42b/pt_mode/glibc-2.19/pt-build/elf/dl-allobjs.os (__readdir)
/home/yaohui.c/work/afl-pt/afl-2.42b/pt_mode/glibc-2.19/pt-build/libc_pic.a(rewinddir.os)
                              /home/yaohui.c/work/afl-pt/afl-2.42b/pt_mode/glibc-2.19/pt-build/elf/dl-allobjs.os (rewinddir)
/home/yaohui.c/work/afl-pt/afl-2.42b/pt_mode/glibc-2.19/pt-build/libc_pic.a(getdents.os)
                              /home/yaohui.c/work/afl-pt/afl-2.42b/pt_mode/glibc-2.19/pt-build/libc_pic.a(readdir.os) (__getdents)
/home/yaohui.c/work/afl-pt/afl-2.42b/pt_mode/glibc-2.19/pt-build/libc_pic.a(fdopendir.os)
                              /home/yaohui.c/work/afl-pt/afl-2.42b/pt_mode/glibc-2.19/pt-build/elf/dl-allobjs.os (__fdopendir)
/home/yaohui.c/work/afl-pt/afl-2.42b/pt_mode/glibc-2.19/pt-build/libc_pic.a(uname.os)
                              /home/yaohui.c/work/afl-pt/afl-2.42b/pt_mode/glibc-2.19/pt-build/elf/dl-allobjs.os (__uname)
/home/yaohui.c/work/afl-pt/afl-2.42b/pt_mode/glibc-2.19/pt-build/libc_pic.a(waitpid.os)
                              /home/yaohui.c/work/afl-pt/afl-2.42b/pt_mode/glibc-2.19/pt-build/elf/dl-allobjs.os (waitpid)
/home/yaohui.c/work/afl-pt/afl-2.42b/pt_mode/glibc-2.19/pt-build/libc_pic.a(_exit.os)
                              /home/yaohui.c/work/afl-pt/afl-2.42b/pt_mode/glibc-2.19/pt-build/elf/dl-allobjs.os (_exit)
/home/yaohui.c/work/afl-pt/afl-2.42b/pt_mode/glibc-2.19/pt-build/libc_pic.a(getpid.os)
                              /home/yaohui.c/work/afl-pt/afl-2.42b/pt_mode/glibc-2.19/pt-build/elf/dl-allobjs.os (__getpid)
/home/yaohui.c/work/afl-pt/afl-2.42b/pt_mode/glibc-2.19/pt-build/libc_pic.a(environ.os)
                              /home/yaohui.c/work/afl-pt/afl-2.42b/pt_mode/glibc-2.19/pt-build/elf/dl-allobjs.os (__environ)
/home/yaohui.c/work/afl-pt/afl-2.42b/pt_mode/glibc-2.19/pt-build/libc_pic.a(xstat.os)
                              /home/yaohui.c/work/afl-pt/afl-2.42b/pt_mode/glibc-2.19/pt-build/elf/dl-allobjs.os (__GI___xstat64)
/home/yaohui.c/work/afl-pt/afl-2.42b/pt_mode/glibc-2.19/pt-build/libc_pic.a(fxstat.os)
                              /home/yaohui.c/work/afl-pt/afl-2.42b/pt_mode/glibc-2.19/pt-build/elf/dl-allobjs.os (__GI___fxstat64)
/home/yaohui.c/work/afl-pt/afl-2.42b/pt_mode/glibc-2.19/pt-build/libc_pic.a(lxstat.os)
                              /home/yaohui.c/work/afl-pt/afl-2.42b/pt_mode/glibc-2.19/pt-build/elf/dl-allobjs.os (__GI___lxstat64)
/home/yaohui.c/work/afl-pt/afl-2.42b/pt_mode/glibc-2.19/pt-build/libc_pic.a(open.os)
                              /home/yaohui.c/work/afl-pt/afl-2.42b/pt_mode/glibc-2.19/pt-build/libc_pic.a(check_fds.os) (__open_nocancel)
/home/yaohui.c/work/afl-pt/afl-2.42b/pt_mode/glibc-2.19/pt-build/libc_pic.a(read.os)
                              /home/yaohui.c/work/afl-pt/afl-2.42b/pt_mode/glibc-2.19/pt-build/elf/dl-allobjs.os (__libc_read)
/home/yaohui.c/work/afl-pt/afl-2.42b/pt_mode/glibc-2.19/pt-build/libc_pic.a(write.os)
                              /home/yaohui.c/work/afl-pt/afl-2.42b/pt_mode/glibc-2.19/pt-build/elf/dl-allobjs.os (__libc_write)
/home/yaohui.c/work/afl-pt/afl-2.42b/pt_mode/glibc-2.19/pt-build/libc_pic.a(access.os)
                              /home/yaohui.c/work/afl-pt/afl-2.42b/pt_mode/glibc-2.19/pt-build/elf/dl-allobjs.os (__access)
/home/yaohui.c/work/afl-pt/afl-2.42b/pt_mode/glibc-2.19/pt-build/libc_pic.a(fcntl.os)
                              /home/yaohui.c/work/afl-pt/afl-2.42b/pt_mode/glibc-2.19/pt-build/libc_pic.a(check_fds.os) (__GI___libc_fcntl)
/home/yaohui.c/work/afl-pt/afl-2.42b/pt_mode/glibc-2.19/pt-build/libc_pic.a(close.os)
                              /home/yaohui.c/work/afl-pt/afl-2.42b/pt_mode/glibc-2.19/pt-build/libc_pic.a(closedir.os) (__close_nocancel)
/home/yaohui.c/work/afl-pt/afl-2.42b/pt_mode/glibc-2.19/pt-build/libc_pic.a(mmap.os)
                              /home/yaohui.c/work/afl-pt/afl-2.42b/pt_mode/glibc-2.19/pt-build/elf/dl-allobjs.os (__mmap)
/home/yaohui.c/work/afl-pt/afl-2.42b/pt_mode/glibc-2.19/pt-build/libc_pic.a(munmap.os)
                              /home/yaohui.c/work/afl-pt/afl-2.42b/pt_mode/glibc-2.19/pt-build/elf/dl-allobjs.os (__munmap)
/home/yaohui.c/work/afl-pt/afl-2.42b/pt_mode/glibc-2.19/pt-build/libc_pic.a(mprotect.os)
                              /home/yaohui.c/work/afl-pt/afl-2.42b/pt_mode/glibc-2.19/pt-build/elf/dl-allobjs.os (__mprotect)
/home/yaohui.c/work/afl-pt/afl-2.42b/pt_mode/glibc-2.19/pt-build/libc_pic.a(llseek.os)
                              /home/yaohui.c/work/afl-pt/afl-2.42b/pt_mode/glibc-2.19/pt-build/elf/dl-allobjs.os (__lseek)
/home/yaohui.c/work/afl-pt/afl-2.42b/pt_mode/glibc-2.19/pt-build/libc_pic.a(profil.os)
                              /home/yaohui.c/work/afl-pt/afl-2.42b/pt_mode/glibc-2.19/pt-build/elf/dl-allobjs.os (__profil)
/home/yaohui.c/work/afl-pt/afl-2.42b/pt_mode/glibc-2.19/pt-build/libc_pic.a(prof-freq.os)
                              /home/yaohui.c/work/afl-pt/afl-2.42b/pt_mode/glibc-2.19/pt-build/libc_pic.a(profil.os) (__GI___profile_frequency)
/home/yaohui.c/work/afl-pt/afl-2.42b/pt_mode/glibc-2.19/pt-build/libc_pic.a(libc-lowlevellock.os)
                              /home/yaohui.c/work/afl-pt/afl-2.42b/pt_mode/glibc-2.19/pt-build/libc_pic.a(readdir.os) (__lll_lock_wait_private)
/home/yaohui.c/work/afl-pt/afl-2.42b/pt_mode/glibc-2.19/pt-build/libc_pic.a(libc-cancellation.os)
                              /home/yaohui.c/work/afl-pt/afl-2.42b/pt_mode/glibc-2.19/pt-build/libc_pic.a(waitpid.os) (__libc_enable_asynccancel)
/home/yaohui.c/work/afl-pt/afl-2.42b/pt_mode/glibc-2.19/pt-build/libc_pic.a(libc_multiple_threads.os)
                              /home/yaohui.c/work/afl-pt/afl-2.42b/pt_mode/glibc-2.19/pt-build/libc_pic.a(readdir.os) (__libc_multiple_threads)
/home/yaohui.c/work/afl-pt/afl-2.42b/pt_mode/glibc-2.19/pt-build/libc_pic.a(init-arch.os)
                              /home/yaohui.c/work/afl-pt/afl-2.42b/pt_mode/glibc-2.19/pt-build/libc_pic.a(strchr.os) (__init_cpu_features)
/home/yaohui.c/work/afl-pt/afl-2.42b/pt_mode/glibc-2.19/pt-build/libc_pic.a(sigaction.os)
                              /home/yaohui.c/work/afl-pt/afl-2.42b/pt_mode/glibc-2.19/pt-build/libc_pic.a(profil.os) (__GI___sigaction)
/home/yaohui.c/work/afl-pt/afl-2.42b/pt_mode/glibc-2.19/pt-build/libc_pic.a(setitimer.os)
                              /home/yaohui.c/work/afl-pt/afl-2.42b/pt_mode/glibc-2.19/pt-build/libc_pic.a(profil.os) (__setitimer)
/home/yaohui.c/work/afl-pt/afl-2.42b/pt_mode/glibc-2.19/pt-build/libc_pic.a(forward.os)
                              /home/yaohui.c/work/afl-pt/afl-2.42b/pt_mode/glibc-2.19/pt-build/libc_pic.a(libc-cancellation.os) (__pthread_unwind)
/home/yaohui.c/work/afl-pt/afl-2.42b/pt_mode/glibc-2.19/pt-build/libc_pic.a(exit.os)
                              /home/yaohui.c/work/afl-pt/afl-2.42b/pt_mode/glibc-2.19/pt-build/libc_pic.a(forward.os) (__GI_exit)
/home/yaohui.c/work/afl-pt/afl-2.42b/pt_mode/glibc-2.19/pt-build/libc_pic.a(cxa_atexit.os)
                              /home/yaohui.c/work/afl-pt/afl-2.42b/pt_mode/glibc-2.19/pt-build/libc_pic.a(exit.os) (__exit_funcs)
/home/yaohui.c/work/afl-pt/afl-2.42b/pt_mode/glibc-2.19/pt-build/libc_pic.a(cxa_thread_atexit_impl.os)
                              /home/yaohui.c/work/afl-pt/afl-2.42b/pt_mode/glibc-2.19/pt-build/libc_pic.a(exit.os) (__GI___call_tls_dtors)

Memory Configuration

Name             Origin             Length             Attributes
*default*        0x0000000000000000 0xffffffffffffffff

Linker script and memory map

START GROUP
LOAD /home/yaohui.c/work/afl-pt/afl-2.42b/pt_mode/glibc-2.19/pt-build/elf/dl-allobjs.os
LOAD /home/yaohui.c/work/afl-pt/afl-2.42b/pt_mode/glibc-2.19/pt-build/libc_pic.a
LOAD /usr/lib/gcc/x86_64-linux-gnu/4.8/libgcc.a
END GROUP

.interp
 *(.interp)

.note.gnu.build-id
 *(.note.gnu.build-id)

.hash
 *(.hash)

.gnu.hash
 *(.gnu.hash)

.dynsym
 *(.dynsym)

.dynstr
 *(.dynstr)

.gnu.version
 *(.gnu.version)

.gnu.version_d
 *(.gnu.version_d)

.gnu.version_r
 *(.gnu.version_r)

.rela.init
 *(.rela.init)

.rela.text
 *(.rela.text)

.rela.fini
 *(.rela.fini)

.rela.rodata
 *(.rela.rodata)

.rela.data.rel.ro
 *(.rela.data.rel.ro)

.rela.data
 *(.rela.data)

.rela.tdata
 *(.rela.tdata)

.rela.tbss
 *(.rela.tbss)

.rela.ctors
 *(.rela.ctors)

.rela.dtors
 *(.rela.dtors)

.rela.got
 *(.rela.got)

.rela.bss
 *(.rela.bss)

.rela.ldata
 *(.rela.ldata)

.rela.lbss
 *(.rela.lbss)

.rela.lrodata
 *(.rela.lrodata)

.rela.ifunc
 *(.rela.ifunc)

.rela.plt
 *(.rela.plt)

.init
 *(SORT(.init))

.plt
 *(.plt)
 *(.iplt)

.text           0x0000000000000000    0x1cadd
 *(.text .stub)
 .text          0x0000000000000000    0x15ca1 /home/yaohui.c/work/afl-pt/afl-2.42b/pt_mode/glibc-2.19/pt-build/elf/dl-allobjs.os
                0x0000000000000000                _start
                0x0000000000000008                _dl_start_user
                0x0000000000000050                _dl_initial_error_catch_tsd
                0x0000000000005f10                _dl_dst_count
                0x0000000000005fc0                _dl_dst_substitute
                0x0000000000006900                _dl_init_paths
                0x0000000000006d20                _dl_map_object
                0x00000000000076e0                _dl_rtld_di_serinfo
                0x00000000000083d0                _dl_lookup_symbol_x
                0x0000000000009450                _dl_setup_hash
                0x0000000000009500                _dl_add_to_namespace_list
                0x0000000000009590                _dl_new_object
                0x00000000000098e0                _dl_try_allocate_static_tls
                0x00000000000099c0                _dl_allocate_static_tls
                0x00000000000099f0                _dl_nothread_init_static_tls
                0x0000000000009a80                _dl_protect_relro
                0x0000000000009ae0                _dl_reloc_bad_type
                0x0000000000009bc0                _dl_relocate_object
                0x000000000000b160                _dl_map_object_deps
                0x000000000000c3d0                _dl_important_hwcaps
                0x000000000000cb10                _dl_fixup
                0x000000000000cd20                _dl_profile_fixup
                0x000000000000d300                _dl_call_pltexit
                0x000000000000d410                _dl_signal_error
                0x000000000000d5c0                _dl_signal_cerror
                0x000000000000d640                _dl_catch_error
                0x000000000000d700                _dl_receive_error
                0x000000000000d870                _dl_init_internal
                0x000000000000d870                _dl_init
                0x000000000000d990                _dl_sort_fini
                0x000000000000dc20                _dl_fini
                0x000000000000e040                _dl_debug_state
                0x000000000000e040                __GI__dl_debug_state
                0x000000000000e050                _dl_debug_initialize
                0x000000000000e680                _dl_sysdep_read_whole_file
                0x000000000000e710                _dl_debug_printf
                0x000000000000e770                _dl_debug_printf_c
                0x000000000000e7d0                _dl_dprintf
                0x000000000000e820                _dl_name_match_p
                0x000000000000e890                _dl_higher_prime_number
                0x000000000000ecc0                _dl_check_map_versions
                0x000000000000f140                _dl_check_all_versions
                0x000000000000f1b0                _dl_start_profile
                0x000000000000f9b0                _dl_mcount_internal
                0x000000000000f9b0                _dl_mcount
                0x000000000000fbe0                _dl_resolve_conflicts
                0x000000000000fe00                _dl_next_tls_modid
                0x000000000000fee0                _dl_determine_tlsoffset
                0x00000000000100a0                __GI__dl_tls_setup
                0x00000000000100a0                _dl_tls_setup
                0x0000000000010150                _dl_get_tls_static_info
                0x0000000000010170                _dl_allocate_tls_storage
                0x00000000000102b0                __GI__dl_allocate_tls_init
                0x00000000000102b0                _dl_allocate_tls_init
                0x00000000000104d0                __GI__dl_allocate_tls
                0x00000000000104d0                _dl_allocate_tls
                0x0000000000010510                _dl_deallocate_tls
                0x0000000000010510                __GI__dl_deallocate_tls
                0x00000000000105a0                _dl_update_slotinfo
                0x00000000000108f0                __tls_get_addr
                0x0000000000010930                _dl_tls_get_addr_soft
                0x00000000000109a0                _dl_add_to_slotinfo
                0x0000000000010a80                _dl_get_origin
                0x0000000000010bf0                _dl_scope_free
                0x0000000000010cb0                _dl_make_stack_executable
                0x0000000000010cb0                __GI__dl_make_stack_executable
                0x0000000000010d30                _dl_check_caller
                0x0000000000011160                _dl_open
                0x00000000000114d0                _dl_show_scope
                0x0000000000011620                _dl_addr_inside_object
                0x0000000000011680                __GI__dl_find_dso_for_object
                0x0000000000011680                _dl_find_dso_for_object
                0x00000000000121a0                _dl_close_worker
                0x0000000000013040                _dl_close
                0x00000000000130c0                _dl_runtime_resolve
                0x0000000000013130                _dl_runtime_profile
                0x0000000000013690                _dl_x86_64_save_sse
                0x0000000000013780                _dl_x86_64_restore_sse
                0x0000000000013830                _dl_cache_libcmp
                0x0000000000013910                _dl_load_cache_lookup
                0x0000000000013e60                _dl_unload_cache
                0x0000000000013ea0                _dl_sysdep_start
                0x0000000000014160                _dl_sysdep_start_cleanup
                0x0000000000014170                _dl_show_auxv
                0x0000000000014320                _dl_discover_osversion
                0x0000000000014500                _dl_next_ld_env_entry
                0x0000000000014540                unsetenv
                0x00000000000145c0                __libc_memalign
                0x00000000000146d0                malloc
                0x00000000000146e0                calloc
                0x0000000000014720                free
                0x0000000000014750                __sigjmp_save
                0x0000000000014760                __strerror_r
                0x0000000000014840                __GI___assert_fail
                0x0000000000014840                __assert_fail
                0x0000000000014890                realloc
                0x0000000000014920                __GI___assert_perror_fail
                0x0000000000014920                __assert_perror_fail
                0x0000000000014990                __strtoul_internal
                0x0000000000014b60                _itoa
                0x0000000000014bb0                __strsep
                0x0000000000014bb0                strsep
                0x0000000000014bb0                __strsep_g
                0x0000000000014c40                __GI___chk_fail
                0x0000000000014c40                __chk_fail
                0x0000000000014c50                __brk
                0x0000000000014c50                brk
                0x0000000000014cb0                sbrk
                0x0000000000014cb0                __sbrk
                0x0000000000014d40                __getcwd
                0x0000000000014d40                getcwd
                0x0000000000015350                openat64
                0x00000000000153a0                __alloc_dir
                0x00000000000154a0                __opendirat
                0x0000000000015510                __opendir
                0x0000000000015510                opendir
                0x0000000000015520                __fxstatat
                0x0000000000015520                __fxstatat64
                0x0000000000015520                __GI___fxstatat64
                0x0000000000015590                _dl_make_tlsdesc_dynamic
                0x0000000000015860                _dl_tlsdesc_resolve_rela_fixup
                0x0000000000015a40                _dl_tlsdesc_resolve_hold_fixup
                0x0000000000015a80                _dl_unmap
                0x0000000000015b00                _dl_tlsdesc_return
                0x0000000000015b10                _dl_tlsdesc_undefweak
                0x0000000000015b20                _dl_tlsdesc_dynamic
                0x0000000000015bc0                _dl_tlsdesc_resolve_rela
                0x0000000000015c30                _dl_tlsdesc_resolve_hold
 *fill*         0x0000000000015ca1        0xf 
 .text          0x0000000000015cb0       0xe2 /home/yaohui.c/work/afl-pt/afl-2.42b/pt_mode/glibc-2.19/pt-build/libc_pic.a(check_fds.os)
                0x0000000000015d60                __libc_check_standard_fds
 .text          0x0000000000015d92        0x0 /home/yaohui.c/work/afl-pt/afl-2.42b/pt_mode/glibc-2.19/pt-build/libc_pic.a(errno.os)
 *fill*         0x0000000000015d92        0xe 
 .text          0x0000000000015da0       0x57 /home/yaohui.c/work/afl-pt/afl-2.42b/pt_mode/glibc-2.19/pt-build/libc_pic.a(setjmp.os)
                0x0000000000015da0                __sigsetjmp
                0x0000000000015da0                __GI___sigsetjmp
 *fill*         0x0000000000015df7        0x9 
 .text          0x0000000000015e00       0x50 /home/yaohui.c/work/afl-pt/afl-2.42b/pt_mode/glibc-2.19/pt-build/libc_pic.a(__longjmp.os)
                0x0000000000015e00                __longjmp
 .text          0x0000000000015e50      0x24a /home/yaohui.c/work/afl-pt/afl-2.42b/pt_mode/glibc-2.19/pt-build/libc_pic.a(strchr.os)
                0x0000000000015e50                index
                0x0000000000015e50                strchr
                0x0000000000015e80                __strchr_sse2
                0x0000000000015e80                __GI_strchr
 *fill*         0x000000000001609a        0x6 
 .text          0x00000000000160a0     0x1479 /home/yaohui.c/work/afl-pt/afl-2.42b/pt_mode/glibc-2.19/pt-build/libc_pic.a(strcmp.os)
                0x00000000000160a0                strcmp
                0x00000000000160e0                __strcmp_sse2
                0x00000000000160e0                __GI_strcmp
 *fill*         0x0000000000017519        0x7 
 .text          0x0000000000017520      0x11c /home/yaohui.c/work/afl-pt/afl-2.42b/pt_mode/glibc-2.19/pt-build/libc_pic.a(strcpy.os)
                0x0000000000017520                strcpy
                0x0000000000017560                __GI_strcpy
                0x0000000000017560                __strcpy_sse2
 *fill*         0x000000000001763c        0x4 
 .text          0x0000000000017640      0x1b4 /home/yaohui.c/work/afl-pt/afl-2.42b/pt_mode/glibc-2.19/pt-build/libc_pic.a(strlen.os)
                0x0000000000017640                strlen
                0x0000000000017640                __GI_strlen
 *fill*         0x00000000000177f4        0xc 
 .text          0x0000000000017800      0x220 /home/yaohui.c/work/afl-pt/afl-2.42b/pt_mode/glibc-2.19/pt-build/libc_pic.a(strnlen.os)
                0x0000000000017800                __strnlen
                0x0000000000017800                strnlen
                0x0000000000017800                __GI___strnlen
                0x0000000000017800                __GI_strnlen
 .text          0x0000000000017a20      0x344 /home/yaohui.c/work/afl-pt/afl-2.42b/pt_mode/glibc-2.19/pt-build/libc_pic.a(memchr.os)
                0x0000000000017a20                __GI_memchr
                0x0000000000017a20                memchr
                0x0000000000017a20                __memchr
 *fill*         0x0000000000017d64        0xc 
 .text          0x0000000000017d70      0x440 /home/yaohui.c/work/afl-pt/afl-2.42b/pt_mode/glibc-2.19/pt-build/libc_pic.a(memcmp.os)
                0x0000000000017d70                bcmp
                0x0000000000017d70                memcmp
                0x0000000000017db0                __GI_memcmp
                0x0000000000017db0                __memcmp_sse2
 .text          0x00000000000181b0      0x1e7 /home/yaohui.c/work/afl-pt/afl-2.42b/pt_mode/glibc-2.19/pt-build/libc_pic.a(memmove.os)
                0x00000000000181b0                __GI_memmove
                0x00000000000181b0                __memmove_sse2
                0x0000000000018350                memmove
                0x0000000000018350                memcpy@GLIBC_2.2.5
                0x0000000000018350                __libc_memmove
 *fill*         0x0000000000018397        0x9 
 .text          0x00000000000183a0      0x137 /home/yaohui.c/work/afl-pt/afl-2.42b/pt_mode/glibc-2.19/pt-build/libc_pic.a(memset.os)
                0x00000000000183a0                __bzero
                0x00000000000183a0                bzero
                0x00000000000183b0                __memset_tail
                0x00000000000183d0                __memset_chk
                0x00000000000183e0                __GI_memset
                0x00000000000183e0                memset
 *fill*         0x00000000000184d7        0x9 
 .text          0x00000000000184e0      0x4a2 /home/yaohui.c/work/afl-pt/afl-2.42b/pt_mode/glibc-2.19/pt-build/libc_pic.a(mempcpy.os)
                0x00000000000184e0                mempcpy
                0x00000000000184e0                __mempcpy
                0x0000000000018520                __mempcpy_chk_sse2
                0x0000000000018530                __GI_mempcpy
                0x0000000000018530                __mempcpy_sse2
                0x0000000000018530                __GI___mempcpy
 *fill*         0x0000000000018982        0xe 
 .text          0x0000000000018990      0x11c /home/yaohui.c/work/afl-pt/afl-2.42b/pt_mode/glibc-2.19/pt-build/libc_pic.a(stpcpy.os)
                0x0000000000018990                stpcpy
                0x0000000000018990                __stpcpy
                0x00000000000189d0                __GI_stpcpy
                0x00000000000189d0                __GI___stpcpy
                0x00000000000189d0                __stpcpy_sse2
 *fill*         0x0000000000018aac        0x4 
 .text          0x0000000000018ab0      0x4b5 /home/yaohui.c/work/afl-pt/afl-2.42b/pt_mode/glibc-2.19/pt-build/libc_pic.a(memcpy.os)
                0x0000000000018ab0                __new_memcpy
                0x0000000000018ab0                memcpy@@GLIBC_2.14
                0x0000000000018af0                __memcpy_chk_sse2
                0x0000000000018b00                __memcpy_sse2
                0x0000000000018b00                __GI_memcpy
 *fill*         0x0000000000018f65        0xb 
 .text          0x0000000000018f70      0x556 /home/yaohui.c/work/afl-pt/afl-2.42b/pt_mode/glibc-2.19/pt-build/libc_pic.a(wordcopy.os)
                0x0000000000018f70                _wordcopy_fwd_aligned
                0x00000000000190b0                _wordcopy_fwd_dest_aligned
                0x00000000000191e0                _wordcopy_bwd_aligned
                0x0000000000019370                _wordcopy_bwd_dest_aligned
 *fill*         0x00000000000194c6        0xa 
 .text          0x00000000000194d0      0x204 /home/yaohui.c/work/afl-pt/afl-2.42b/pt_mode/glibc-2.19/pt-build/libc_pic.a(rawmemchr.os)
                0x00000000000194d0                __GI___rawmemchr
                0x00000000000194d0                __rawmemchr
                0x00000000000194d0                rawmemchr
 .text          0x00000000000196d4        0x0 /home/yaohui.c/work/afl-pt/afl-2.42b/pt_mode/glibc-2.19/pt-build/libc_pic.a(strcmp-ssse3.os)
 *fill*         0x00000000000196d4        0xc 
 .text          0x00000000000196e0      0x2a3 /home/yaohui.c/work/afl-pt/afl-2.42b/pt_mode/glibc-2.19/pt-build/libc_pic.a(strcmp-sse2-unaligned.os)
                0x00000000000196e0                __strcmp_sse2_unaligned
 .text          0x0000000000019983        0x0 /home/yaohui.c/work/afl-pt/afl-2.42b/pt_mode/glibc-2.19/pt-build/libc_pic.a(memcmp-sse4.os)
 .text          0x0000000000019983        0x0 /home/yaohui.c/work/afl-pt/afl-2.42b/pt_mode/glibc-2.19/pt-build/libc_pic.a(memcpy-ssse3.os)
 *fill*         0x0000000000019983        0xd 
 .text          0x0000000000019990      0x217 /home/yaohui.c/work/afl-pt/afl-2.42b/pt_mode/glibc-2.19/pt-build/libc_pic.a(memcpy-sse2-unaligned.os)
                0x0000000000019990                __memcpy_sse2_unaligned
 .text          0x0000000000019ba7        0x0 /home/yaohui.c/work/afl-pt/afl-2.42b/pt_mode/glibc-2.19/pt-build/libc_pic.a(mempcpy-ssse3.os)
 .text          0x0000000000019ba7        0x0 /home/yaohui.c/work/afl-pt/afl-2.42b/pt_mode/glibc-2.19/pt-build/libc_pic.a(memmove-ssse3.os)
 .text          0x0000000000019ba7        0x0 /home/yaohui.c/work/afl-pt/afl-2.42b/pt_mode/glibc-2.19/pt-build/libc_pic.a(mempcpy-ssse3-back.os)
 .text          0x0000000000019ba7        0x0 /home/yaohui.c/work/afl-pt/afl-2.42b/pt_mode/glibc-2.19/pt-build/libc_pic.a(memmove-ssse3-back.os)
 .text          0x0000000000019ba7        0x0 /home/yaohui.c/work/afl-pt/afl-2.42b/pt_mode/glibc-2.19/pt-build/libc_pic.a(strcpy-ssse3.os)
 .text          0x0000000000019ba7        0x0 /home/yaohui.c/work/afl-pt/afl-2.42b/pt_mode/glibc-2.19/pt-build/libc_pic.a(stpcpy-ssse3.os)
 *fill*         0x0000000000019ba7        0x9 
 .text          0x0000000000019bb0      0x630 /home/yaohui.c/work/afl-pt/afl-2.42b/pt_mode/glibc-2.19/pt-build/libc_pic.a(strcpy-sse2-unaligned.os)
                0x0000000000019bb0                __strcpy_sse2_unaligned
 .text          0x000000000001a1e0      0x6b0 /home/yaohui.c/work/afl-pt/afl-2.42b/pt_mode/glibc-2.19/pt-build/libc_pic.a(stpcpy-sse2-unaligned.os)
                0x000000000001a1e0                __stpcpy_sse2_unaligned
 .text          0x000000000001a890        0x0 /home/yaohui.c/work/afl-pt/afl-2.42b/pt_mode/glibc-2.19/pt-build/libc_pic.a(strchr-sse2-no-bsf.os)
 .text          0x000000000001a890        0x0 /home/yaohui.c/work/afl-pt/afl-2.42b/pt_mode/glibc-2.19/pt-build/libc_pic.a(memcmp-ssse3.os)
 .text          0x000000000001a890      0x5e7 /home/yaohui.c/work/afl-pt/afl-2.42b/pt_mode/glibc-2.19/pt-build/libc_pic.a(cacheinfo.os)
                0x000000000001ae20                __cache_sysconf
 *fill*         0x000000000001ae77        0x9 
 .text          0x000000000001ae80       0x2c /home/yaohui.c/work/afl-pt/afl-2.42b/pt_mode/glibc-2.19/pt-build/libc_pic.a(closedir.os)
                0x000000000001ae80                __closedir
                0x000000000001ae80                closedir
 *fill*         0x000000000001aeac        0x4 
 .text          0x000000000001aeb0      0x10d /home/yaohui.c/work/afl-pt/afl-2.42b/pt_mode/glibc-2.19/pt-build/libc_pic.a(readdir.os)
                0x000000000001aeb0                readdir
                0x000000000001aeb0                __readdir64
                0x000000000001aeb0                __readdir
                0x000000000001aeb0                readdir64
 *fill*         0x000000000001afbd        0x3 
 .text          0x000000000001afc0       0x97 /home/yaohui.c/work/afl-pt/afl-2.42b/pt_mode/glibc-2.19/pt-build/libc_pic.a(rewinddir.os)
                0x000000000001afc0                rewinddir
                0x000000000001afc0                __GI_rewinddir
 *fill*         0x000000000001b057        0x9 
 .text          0x000000000001b060       0x84 /home/yaohui.c/work/afl-pt/afl-2.42b/pt_mode/glibc-2.19/pt-build/libc_pic.a(getdents.os)
                0x000000000001b060                __getdents
                0x000000000001b060                __getdents64
 *fill*         0x000000000001b0e4        0xc 
 .text          0x000000000001b0f0       0x87 /home/yaohui.c/work/afl-pt/afl-2.42b/pt_mode/glibc-2.19/pt-build/libc_pic.a(fdopendir.os)
                0x000000000001b0f0                fdopendir
                0x000000000001b0f0                __fdopendir
 *fill*         0x000000000001b177        0x9 
 .text          0x000000000001b180       0x21 /home/yaohui.c/work/afl-pt/afl-2.42b/pt_mode/glibc-2.19/pt-build/libc_pic.a(uname.os)
                0x000000000001b180                uname
                0x000000000001b180                __GI_uname
                0x000000000001b180                __uname
                0x000000000001b180                __GI___uname
 *fill*         0x000000000001b1a1        0xf 
 .text          0x000000000001b1b0       0x96 /home/yaohui.c/work/afl-pt/afl-2.42b/pt_mode/glibc-2.19/pt-build/libc_pic.a(waitpid.os)
                0x000000000001b1b0                waitpid
                0x000000000001b1b0                __libc_waitpid
                0x000000000001b1b0                __waitpid
                0x000000000001b1b0                __GI___waitpid
 *fill*         0x000000000001b246        0xa 
 .text          0x000000000001b250       0x55 /home/yaohui.c/work/afl-pt/afl-2.42b/pt_mode/glibc-2.19/pt-build/libc_pic.a(_exit.os)
                0x000000000001b250                _Exit
                0x000000000001b250                __GI__exit
                0x000000000001b250                _exit
 *fill*         0x000000000001b2a5        0xb 
 .text          0x000000000001b2b0       0x3b /home/yaohui.c/work/afl-pt/afl-2.42b/pt_mode/glibc-2.19/pt-build/libc_pic.a(getpid.os)
                0x000000000001b2b0                __getpid
                0x000000000001b2b0                getpid
                0x000000000001b2b0                __GI_getpid
                0x000000000001b2b0                __GI___getpid
 .text          0x000000000001b2eb        0x0 /home/yaohui.c/work/afl-pt/afl-2.42b/pt_mode/glibc-2.19/pt-build/libc_pic.a(environ.os)
 *fill*         0x000000000001b2eb        0x5 
 .text          0x000000000001b2f0       0x45 /home/yaohui.c/work/afl-pt/afl-2.42b/pt_mode/glibc-2.19/pt-build/libc_pic.a(xstat.os)
                0x000000000001b2f0                _xstat
                0x000000000001b2f0                __xstat64
                0x000000000001b2f0                __GI___xstat64
                0x000000000001b2f0                __GI___xstat
                0x000000000001b2f0                __xstat
 *fill*         0x000000000001b335        0xb 
 .text          0x000000000001b340       0x45 /home/yaohui.c/work/afl-pt/afl-2.42b/pt_mode/glibc-2.19/pt-build/libc_pic.a(fxstat.os)
                0x000000000001b340                __GI___fxstat
                0x000000000001b340                __GI___fxstat64
                0x000000000001b340                __fxstat64
                0x000000000001b340                _fxstat
                0x000000000001b340                __fxstat
 *fill*         0x000000000001b385        0xb 
 .text          0x000000000001b390       0x45 /home/yaohui.c/work/afl-pt/afl-2.42b/pt_mode/glibc-2.19/pt-build/libc_pic.a(lxstat.os)
                0x000000000001b390                __GI___lxstat
                0x000000000001b390                _lxstat
                0x000000000001b390                __lxstat
                0x000000000001b390                __lxstat64
                0x000000000001b390                __GI___lxstat64
 *fill*         0x000000000001b3d5        0xb 
 .text          0x000000000001b3e0       0x5a /home/yaohui.c/work/afl-pt/afl-2.42b/pt_mode/glibc-2.19/pt-build/libc_pic.a(open.os)
                0x000000000001b3e0                __GI___open64
                0x000000000001b3e0                __open
                0x000000000001b3e0                __GI_open
                0x000000000001b3e0                __GI___open
                0x000000000001b3e0                __GI_open64
                0x000000000001b3e0                __libc_open
                0x000000000001b3e0                open64
                0x000000000001b3e0                __GI___libc_open
                0x000000000001b3e0                open
                0x000000000001b3e0                __open64
                0x000000000001b3e9                __open_nocancel
 *fill*         0x000000000001b43a        0x6 
 .text          0x000000000001b440       0x5a /home/yaohui.c/work/afl-pt/afl-2.42b/pt_mode/glibc-2.19/pt-build/libc_pic.a(read.os)
                0x000000000001b440                __read
                0x000000000001b440                __GI_read
                0x000000000001b440                __libc_read
                0x000000000001b440                __GI___read
                0x000000000001b440                read
                0x000000000001b440                __GI___libc_read
                0x000000000001b449                __read_nocancel
 *fill*         0x000000000001b49a        0x6 
 .text          0x000000000001b4a0       0x5a /home/yaohui.c/work/afl-pt/afl-2.42b/pt_mode/glibc-2.19/pt-build/libc_pic.a(write.os)
                0x000000000001b4a0                __write
                0x000000000001b4a0                __GI_write
                0x000000000001b4a0                write
                0x000000000001b4a0                __GI___libc_write
                0x000000000001b4a0                __GI___write
                0x000000000001b4a0                __libc_write
                0x000000000001b4a9                __write_nocancel
 *fill*         0x000000000001b4fa        0x6 
 .text          0x000000000001b500       0x21 /home/yaohui.c/work/afl-pt/afl-2.42b/pt_mode/glibc-2.19/pt-build/libc_pic.a(access.os)
                0x000000000001b500                __GI_access
                0x000000000001b500                __GI___access
                0x000000000001b500                access
                0x000000000001b500                __access
 *fill*         0x000000000001b521        0xf 
 .text          0x000000000001b530      0x173 /home/yaohui.c/work/afl-pt/afl-2.42b/pt_mode/glibc-2.19/pt-build/libc_pic.a(fcntl.os)
                0x000000000001b600                __fcntl_nocancel
                0x000000000001b630                __libc_fcntl
                0x000000000001b630                __GI___libc_fcntl
                0x000000000001b630                __GI___fcntl
                0x000000000001b630                __fcntl
                0x000000000001b630                fcntl
 *fill*         0x000000000001b6a3        0xd 
 .text          0x000000000001b6b0       0x5a /home/yaohui.c/work/afl-pt/afl-2.42b/pt_mode/glibc-2.19/pt-build/libc_pic.a(close.os)
                0x000000000001b6b0                __GI_close
                0x000000000001b6b0                __GI___libc_close
                0x000000000001b6b0                __libc_close
                0x000000000001b6b0                __close
                0x000000000001b6b0                __GI___close
                0x000000000001b6b0                close
                0x000000000001b6b9                __close_nocancel
 *fill*         0x000000000001b70a        0x6 
 .text          0x000000000001b710       0x24 /home/yaohui.c/work/afl-pt/afl-2.42b/pt_mode/glibc-2.19/pt-build/libc_pic.a(mmap.os)
                0x000000000001b710                __GI___mmap
                0x000000000001b710                __GI_mmap64
                0x000000000001b710                __mmap
                0x000000000001b710                mmap
                0x000000000001b710                __GI___mmap64
                0x000000000001b710                __mmap64
                0x000000000001b710                __GI_mmap
                0x000000000001b710                mmap64
 *fill*         0x000000000001b734        0xc 
 .text          0x000000000001b740       0x21 /home/yaohui.c/work/afl-pt/afl-2.42b/pt_mode/glibc-2.19/pt-build/libc_pic.a(munmap.os)
                0x000000000001b740                munmap
                0x000000000001b740                __GI___munmap
                0x000000000001b740                __GI_munmap
                0x000000000001b740                __munmap
 *fill*         0x000000000001b761        0xf 
 .text          0x000000000001b770       0x21 /home/yaohui.c/work/afl-pt/afl-2.42b/pt_mode/glibc-2.19/pt-build/libc_pic.a(mprotect.os)
                0x000000000001b770                __mprotect
                0x000000000001b770                __GI___mprotect
                0x000000000001b770                __GI_mprotect
                0x000000000001b770                mprotect
 *fill*         0x000000000001b791        0xf 
 .text          0x000000000001b7a0       0x5a /home/yaohui.c/work/afl-pt/afl-2.42b/pt_mode/glibc-2.19/pt-build/libc_pic.a(llseek.os)
                0x000000000001b7a0                __GI___lseek
                0x000000000001b7a0                __GI_lseek64
                0x000000000001b7a0                __llseek
                0x000000000001b7a0                __GI_llseek
                0x000000000001b7a0                __lseek64
                0x000000000001b7a0                lseek
                0x000000000001b7a0                __libc_lseek64
                0x000000000001b7a0                __GI___libc_lseek64
                0x000000000001b7a0                __GI___libc_lseek
                0x000000000001b7a0                llseek
                0x000000000001b7a0                __lseek
                0x000000000001b7a0                __GI___lseek64
                0x000000000001b7a0                __libc_lseek
                0x000000000001b7a0                __GI___llseek
                0x000000000001b7a0                __GI_lseek
                0x000000000001b7a0                lseek64
                0x000000000001b7a9                __lseek_nocancel
 *fill*         0x000000000001b7fa        0x6 
 .text          0x000000000001b800      0x1ce /home/yaohui.c/work/afl-pt/afl-2.42b/pt_mode/glibc-2.19/pt-build/libc_pic.a(profil.os)
                0x000000000001b850                __profil
                0x000000000001b850                profil
 *fill*         0x000000000001b9ce        0x2 
 .text          0x000000000001b9d0        0xb /home/yaohui.c/work/afl-pt/afl-2.42b/pt_mode/glibc-2.19/pt-build/libc_pic.a(prof-freq.os)
                0x000000000001b9d0                __GI___profile_frequency
                0x000000000001b9d0                __profile_frequency
 *fill*         0x000000000001b9db        0x5 
 .text          0x000000000001b9e0       0x52 /home/yaohui.c/work/afl-pt/afl-2.42b/pt_mode/glibc-2.19/pt-build/libc_pic.a(libc-lowlevellock.os)
                0x000000000001b9e0                __lll_lock_wait_private
                0x000000000001ba10                __lll_unlock_wake_private
 *fill*         0x000000000001ba32        0xe 
 .text          0x000000000001ba40       0xbc /home/yaohui.c/work/afl-pt/afl-2.42b/pt_mode/glibc-2.19/pt-build/libc_pic.a(libc-cancellation.os)
                0x000000000001ba40                __libc_enable_asynccancel
                0x000000000001baa0                __libc_disable_asynccancel
 .text          0x000000000001bafc        0x0 /home/yaohui.c/work/afl-pt/afl-2.42b/pt_mode/glibc-2.19/pt-build/libc_pic.a(libc_multiple_threads.os)
 *fill*         0x000000000001bafc        0x4 
 .text          0x000000000001bb00      0x267 /home/yaohui.c/work/afl-pt/afl-2.42b/pt_mode/glibc-2.19/pt-build/libc_pic.a(init-arch.os)
                0x000000000001bb00                __init_cpu_features
                0x000000000001bd50                __get_cpu_features
 *fill*         0x000000000001bd67        0x9 
 .text          0x000000000001bd70      0x22f /home/yaohui.c/work/afl-pt/afl-2.42b/pt_mode/glibc-2.19/pt-build/libc_pic.a(sigaction.os)
                0x000000000001bd90                __libc_sigaction
                0x000000000001bd90                __GI___libc_sigaction
                0x000000000001bf80                sigaction
                0x000000000001bf80                __GI___sigaction
                0x000000000001bf80                __sigaction
 *fill*         0x000000000001bf9f        0x1 
 .text          0x000000000001bfa0       0x21 /home/yaohui.c/work/afl-pt/afl-2.42b/pt_mode/glibc-2.19/pt-build/libc_pic.a(setitimer.os)
                0x000000000001bfa0                setitimer
                0x000000000001bfa0                __setitimer
                0x000000000001bfa0                __GI_setitimer
                0x000000000001bfa0                __GI___setitimer
 *fill*         0x000000000001bfc1        0xf 
 .text          0x000000000001bfd0      0x5c6 /home/yaohui.c/work/afl-pt/afl-2.42b/pt_mode/glibc-2.19/pt-build/libc_pic.a(forward.os)
                0x000000000001bfd0                pthread_equal
                0x000000000001c000                pthread_attr_destroy
                0x000000000001c030                pthread_attr_init@@GLIBC_2.2.5
                0x000000000001c030                __pthread_attr_init_2_1
                0x000000000001c060                pthread_attr_getdetachstate
                0x000000000001c090                pthread_attr_setdetachstate
                0x000000000001c0c0                pthread_attr_getinheritsched
                0x000000000001c0f0                pthread_attr_setinheritsched
                0x000000000001c120                pthread_attr_getschedparam
                0x000000000001c150                pthread_attr_setschedparam
                0x000000000001c180                pthread_attr_getschedpolicy
                0x000000000001c1b0                pthread_attr_setschedpolicy
                0x000000000001c1e0                pthread_attr_getscope
                0x000000000001c210                pthread_attr_setscope
                0x000000000001c240                pthread_condattr_destroy
                0x000000000001c270                pthread_condattr_init
                0x000000000001c2a0                pthread_cond_broadcast@@GLIBC_2.3.2
                0x000000000001c2a0                __pthread_cond_broadcast
                0x000000000001c2d0                pthread_cond_destroy@@GLIBC_2.3.2
                0x000000000001c2d0                __pthread_cond_destroy
                0x000000000001c300                pthread_cond_init@@GLIBC_2.3.2
                0x000000000001c300                __pthread_cond_init
                0x000000000001c330                pthread_cond_signal@@GLIBC_2.3.2
                0x000000000001c330                __pthread_cond_signal
                0x000000000001c360                pthread_cond_wait@@GLIBC_2.3.2
                0x000000000001c360                __pthread_cond_wait
                0x000000000001c390                pthread_cond_timedwait@@GLIBC_2.3.2
                0x000000000001c390                __pthread_cond_timedwait
                0x000000000001c3c0                pthread_exit
                0x000000000001c3c0                __pthread_exit
                0x000000000001c3f0                pthread_getschedparam
                0x000000000001c420                pthread_setschedparam
                0x000000000001c450                pthread_mutex_destroy
                0x000000000001c480                pthread_mutex_init
                0x000000000001c4b0                pthread_mutex_lock
                0x000000000001c4e0                pthread_mutex_unlock
                0x000000000001c510                pthread_self
                0x000000000001c540                pthread_setcancelstate
                0x000000000001c570                pthread_setcanceltype
 *fill*         0x000000000001c596        0xa 
 .text          0x000000000001c5a0      0x125 /home/yaohui.c/work/afl-pt/afl-2.42b/pt_mode/glibc-2.19/pt-build/libc_pic.a(exit.os)
                0x000000000001c5a0                __run_exit_handlers
                0x000000000001c6b0                __GI_exit
                0x000000000001c6b0                exit
 *fill*         0x000000000001c6c5        0xb 
 .text          0x000000000001c6d0      0x24d /home/yaohui.c/work/afl-pt/afl-2.42b/pt_mode/glibc-2.19/pt-build/libc_pic.a(cxa_atexit.os)
                0x000000000001c6d0                __new_exitfn
                0x000000000001c840                __internal_atexit
                0x000000000001c890                __cxa_atexit_internal
                0x000000000001c890                __cxa_atexit
 *fill*         0x000000000001c91d        0x3 
 .text          0x000000000001c920      0x1bd /home/yaohui.c/work/afl-pt/afl-2.42b/pt_mode/glibc-2.19/pt-build/libc_pic.a(cxa_thread_atexit_impl.os)
                0x000000000001c920                __cxa_thread_atexit_impl
                0x000000000001ca20                __GI___call_tls_dtors
                0x000000000001ca20                __call_tls_dtors
 *(.gnu.warning)

.text.unlikely  0x0000000000000000      0x710
 .text.unlikely
                0x0000000000000000      0x710 /home/yaohui.c/work/afl-pt/afl-2.42b/pt_mode/glibc-2.19/pt-build/elf/dl-allobjs.os

.text.sse4.2    0x0000000000000000      0xda9
 .text.sse4.2   0x0000000000000000      0xda9 /home/yaohui.c/work/afl-pt/afl-2.42b/pt_mode/glibc-2.19/pt-build/libc_pic.a(strcmp.os)
                0x0000000000000000                __strcmp_sse42

.text.ssse3     0x0000000000000000    0x11723
 .text.ssse3    0x0000000000000000     0x1259 /home/yaohui.c/work/afl-pt/afl-2.42b/pt_mode/glibc-2.19/pt-build/libc_pic.a(strcmp-ssse3.os)
                0x0000000000000000                __GI___strcmp_ssse3
                0x0000000000000000                __strcmp_ssse3
 *fill*         0x0000000000001259        0x7 
 .text.ssse3    0x0000000000001260     0x29c6 /home/yaohui.c/work/afl-pt/afl-2.42b/pt_mode/glibc-2.19/pt-build/libc_pic.a(memcpy-ssse3.os)
                0x0000000000001260                __memcpy_chk_ssse3
                0x0000000000001270                __memcpy_ssse3
 *fill*         0x0000000000003c26        0xa 
 .text.ssse3    0x0000000000003c30     0x29c6 /home/yaohui.c/work/afl-pt/afl-2.42b/pt_mode/glibc-2.19/pt-build/libc_pic.a(mempcpy-ssse3.os)
                0x0000000000003c30                __mempcpy_chk_ssse3
                0x0000000000003c40                __mempcpy_ssse3
 *fill*         0x00000000000065f6        0xa 
 .text.ssse3    0x0000000000006600     0x2b77 /home/yaohui.c/work/afl-pt/afl-2.42b/pt_mode/glibc-2.19/pt-build/libc_pic.a(memmove-ssse3.os)
                0x0000000000006600                __memmove_chk_ssse3
                0x0000000000006610                __memmove_ssse3
 *fill*         0x0000000000009177        0x9 
 .text.ssse3    0x0000000000009180     0x2ac6 /home/yaohui.c/work/afl-pt/afl-2.42b/pt_mode/glibc-2.19/pt-build/libc_pic.a(mempcpy-ssse3-back.os)
                0x0000000000009180                __mempcpy_chk_ssse3_back
                0x0000000000009190                __mempcpy_ssse3_back
 *fill*         0x000000000000bc46        0xa 
 .text.ssse3    0x000000000000bc50     0x2b16 /home/yaohui.c/work/afl-pt/afl-2.42b/pt_mode/glibc-2.19/pt-build/libc_pic.a(memmove-ssse3-back.os)
                0x000000000000bc50                __memmove_chk_ssse3_back
                0x000000000000bc60                __memmove_ssse3_back
 *fill*         0x000000000000e766        0xa 
 .text.ssse3    0x000000000000e770     0x17a2 /home/yaohui.c/work/afl-pt/afl-2.42b/pt_mode/glibc-2.19/pt-build/libc_pic.a(strcpy-ssse3.os)
                0x000000000000e770                __strcpy_ssse3
 *fill*         0x000000000000ff12        0xe 
 .text.ssse3    0x000000000000ff20     0x1803 /home/yaohui.c/work/afl-pt/afl-2.42b/pt_mode/glibc-2.19/pt-build/libc_pic.a(stpcpy-ssse3.os)
                0x000000000000ff20                __stpcpy_ssse3

.text.sse4.1    0x0000000000000000     0x163e
 .text.sse4.1   0x0000000000000000     0x163e /home/yaohui.c/work/afl-pt/afl-2.42b/pt_mode/glibc-2.19/pt-build/libc_pic.a(memcmp-sse4.os)
                0x0000000000000000                __memcmp_sse4_1

.text.atom      0x0000000000000000     0x1a83
 .text.atom     0x0000000000000000      0x315 /home/yaohui.c/work/afl-pt/afl-2.42b/pt_mode/glibc-2.19/pt-build/libc_pic.a(strchr-sse2-no-bsf.os)
                0x0000000000000000                __strchr_sse2_no_bsf
 *fill*         0x0000000000000315        0xb 
 .text.atom     0x0000000000000320     0x1763 /home/yaohui.c/work/afl-pt/afl-2.42b/pt_mode/glibc-2.19/pt-build/libc_pic.a(memcmp-ssse3.os)
                0x0000000000000320                __memcmp_ssse3

.text.startup   0x0000000000000000      0x25e
 .text.startup  0x0000000000000000      0x25e /home/yaohui.c/work/afl-pt/afl-2.42b/pt_mode/glibc-2.19/pt-build/libc_pic.a(cacheinfo.os)

.text.compat    0x0000000000000000      0x156
 .text.compat   0x0000000000000000      0x156 /home/yaohui.c/work/afl-pt/afl-2.42b/pt_mode/glibc-2.19/pt-build/libc_pic.a(forward.os)
                0x0000000000000000                pthread_cond_broadcast@GLIBC_2.2.5
                0x0000000000000000                __pthread_cond_broadcast_2_0
                0x0000000000000030                __pthread_cond_destroy_2_0
                0x0000000000000030                pthread_cond_destroy@GLIBC_2.2.5
                0x0000000000000060                __pthread_cond_init_2_0
                0x0000000000000060                pthread_cond_init@GLIBC_2.2.5
                0x0000000000000090                __pthread_cond_signal_2_0
                0x0000000000000090                pthread_cond_signal@GLIBC_2.2.5
                0x00000000000000c0                pthread_cond_wait@GLIBC_2.2.5
                0x00000000000000c0                __pthread_cond_wait_2_0
                0x00000000000000f0                pthread_cond_timedwait@GLIBC_2.2.5
                0x00000000000000f0                __pthread_cond_timedwait_2_0
                0x0000000000000120                __pthread_unwind

.fini
 *(SORT(.fini))

.rodata         0x0000000000000000      0xfe0
 *(.rodata)
 .rodata        0x0000000000000000      0xb30 /home/yaohui.c/work/afl-pt/afl-2.42b/pt_mode/glibc-2.19/pt-build/elf/dl-allobjs.os
                0x0000000000000b20                __GI__itoa_lower_digits
                0x0000000000000b20                _itoa_lower_digits
 .rodata        0x0000000000000b30       0x40 /home/yaohui.c/work/afl-pt/afl-2.42b/pt_mode/glibc-2.19/pt-build/libc_pic.a(strcmp.os)
 .rodata        0x0000000000000b70       0x40 /home/yaohui.c/work/afl-pt/afl-2.42b/pt_mode/glibc-2.19/pt-build/libc_pic.a(wordcopy.os)
 .rodata        0x0000000000000bb0       0x40 /home/yaohui.c/work/afl-pt/afl-2.42b/pt_mode/glibc-2.19/pt-build/libc_pic.a(strcmp-ssse3.os)
 .rodata        0x0000000000000bf0       0x80 /home/yaohui.c/work/afl-pt/afl-2.42b/pt_mode/glibc-2.19/pt-build/libc_pic.a(strcpy-sse2-unaligned.os)
 .rodata        0x0000000000000c70       0x80 /home/yaohui.c/work/afl-pt/afl-2.42b/pt_mode/glibc-2.19/pt-build/libc_pic.a(stpcpy-sse2-unaligned.os)
 *fill*         0x0000000000000cf0       0x10 
 .rodata        0x0000000000000d00      0x2e0 /home/yaohui.c/work/afl-pt/afl-2.42b/pt_mode/glibc-2.19/pt-build/libc_pic.a(cacheinfo.os)

.rodata.str1.1  0x0000000000000000     0x112d
 .rodata.str1.1
                0x0000000000000000     0x10ac /home/yaohui.c/work/afl-pt/afl-2.42b/pt_mode/glibc-2.19/pt-build/elf/dl-allobjs.os
 .rodata.str1.1
                0x00000000000010ac       0x14 /home/yaohui.c/work/afl-pt/afl-2.42b/pt_mode/glibc-2.19/pt-build/libc_pic.a(check_fds.os)
 .rodata.str1.1
                0x00000000000010c0       0x42 /home/yaohui.c/work/afl-pt/afl-2.42b/pt_mode/glibc-2.19/pt-build/libc_pic.a(cacheinfo.os)
 .rodata.str1.1
                0x0000000000001102       0x2b /home/yaohui.c/work/afl-pt/afl-2.42b/pt_mode/glibc-2.19/pt-build/libc_pic.a(cxa_atexit.os)

.rodata.str1.8  0x0000000000000000     0x2583
 .rodata.str1.8
                0x0000000000000000     0x2551 /home/yaohui.c/work/afl-pt/afl-2.42b/pt_mode/glibc-2.19/pt-build/elf/dl-allobjs.os
 *fill*         0x0000000000002551        0x7 
 .rodata.str1.8
                0x0000000000002558       0x2b /home/yaohui.c/work/afl-pt/afl-2.42b/pt_mode/glibc-2.19/pt-build/libc_pic.a(cacheinfo.os)

.rodata.str1.16
                0x0000000000000000      0x3d1
 .rodata.str1.16
                0x0000000000000000      0x3b3 /home/yaohui.c/work/afl-pt/afl-2.42b/pt_mode/glibc-2.19/pt-build/elf/dl-allobjs.os
 *fill*         0x00000000000003b3        0xd 
 .rodata.str1.16
                0x00000000000003c0       0x11 /home/yaohui.c/work/afl-pt/afl-2.42b/pt_mode/glibc-2.19/pt-build/libc_pic.a(cacheinfo.os)

.rodata.cst16   0x0000000000000000       0x20
 .rodata.cst16  0x0000000000000000       0x20 /home/yaohui.c/work/afl-pt/afl-2.42b/pt_mode/glibc-2.19/pt-build/elf/dl-allobjs.os

.rodata.cst4    0x0000000000000000        0x4
 .rodata.cst4   0x0000000000000000        0x4 /home/yaohui.c/work/afl-pt/afl-2.42b/pt_mode/glibc-2.19/pt-build/elf/dl-allobjs.os

.rodata.str1.32
                0x0000000000000000      0x121
 .rodata.str1.32
                0x0000000000000000      0x121 /home/yaohui.c/work/afl-pt/afl-2.42b/pt_mode/glibc-2.19/pt-build/elf/dl-allobjs.os

.rodata.sse4.2  0x0000000000000000       0x40
 .rodata.sse4.2
                0x0000000000000000       0x40 /home/yaohui.c/work/afl-pt/afl-2.42b/pt_mode/glibc-2.19/pt-build/libc_pic.a(strcmp.os)

.rodata.sse4.1  0x0000000000000000      0x140
 .rodata.sse4.1
                0x0000000000000000      0x140 /home/yaohui.c/work/afl-pt/afl-2.42b/pt_mode/glibc-2.19/pt-build/libc_pic.a(memcmp-sse4.os)

.rodata.ssse3   0x0000000000000000      0xf40
 .rodata.ssse3  0x0000000000000000      0x1c0 /home/yaohui.c/work/afl-pt/afl-2.42b/pt_mode/glibc-2.19/pt-build/libc_pic.a(memcpy-ssse3.os)
 .rodata.ssse3  0x00000000000001c0      0x1c0 /home/yaohui.c/work/afl-pt/afl-2.42b/pt_mode/glibc-2.19/pt-build/libc_pic.a(mempcpy-ssse3.os)
 .rodata.ssse3  0x0000000000000380      0x1c0 /home/yaohui.c/work/afl-pt/afl-2.42b/pt_mode/glibc-2.19/pt-build/libc_pic.a(memmove-ssse3.os)
 .rodata.ssse3  0x0000000000000540      0x500 /home/yaohui.c/work/afl-pt/afl-2.42b/pt_mode/glibc-2.19/pt-build/libc_pic.a(mempcpy-ssse3-back.os)
 .rodata.ssse3  0x0000000000000a40      0x500 /home/yaohui.c/work/afl-pt/afl-2.42b/pt_mode/glibc-2.19/pt-build/libc_pic.a(memmove-ssse3-back.os)

.rodata1
 *(.rodata1)

.eh_frame_hdr
 *(.eh_frame_hdr)

.eh_frame       0x0000000000000000     0x3778
 *(.eh_frame)
 .eh_frame      0x0000000000000000     0x1ee0 /home/yaohui.c/work/afl-pt/afl-2.42b/pt_mode/glibc-2.19/pt-build/elf/dl-allobjs.os
 .eh_frame      0x0000000000001ee0       0x68 /home/yaohui.c/work/afl-pt/afl-2.42b/pt_mode/glibc-2.19/pt-build/libc_pic.a(check_fds.os)
 .eh_frame      0x0000000000001f48       0x30 /home/yaohui.c/work/afl-pt/afl-2.42b/pt_mode/glibc-2.19/pt-build/libc_pic.a(setjmp.os)
 .eh_frame      0x0000000000001f78       0x48 /home/yaohui.c/work/afl-pt/afl-2.42b/pt_mode/glibc-2.19/pt-build/libc_pic.a(__longjmp.os)
 .eh_frame      0x0000000000001fc0       0x40 /home/yaohui.c/work/afl-pt/afl-2.42b/pt_mode/glibc-2.19/pt-build/libc_pic.a(strchr.os)
 .eh_frame      0x0000000000002000       0x58 /home/yaohui.c/work/afl-pt/afl-2.42b/pt_mode/glibc-2.19/pt-build/libc_pic.a(strcmp.os)
 .eh_frame      0x0000000000002058       0x40 /home/yaohui.c/work/afl-pt/afl-2.42b/pt_mode/glibc-2.19/pt-build/libc_pic.a(strcpy.os)
 .eh_frame      0x0000000000002098       0x30 /home/yaohui.c/work/afl-pt/afl-2.42b/pt_mode/glibc-2.19/pt-build/libc_pic.a(strlen.os)
 .eh_frame      0x00000000000020c8       0x30 /home/yaohui.c/work/afl-pt/afl-2.42b/pt_mode/glibc-2.19/pt-build/libc_pic.a(strnlen.os)
 .eh_frame      0x00000000000020f8       0x30 /home/yaohui.c/work/afl-pt/afl-2.42b/pt_mode/glibc-2.19/pt-build/libc_pic.a(memchr.os)
 .eh_frame      0x0000000000002128       0x40 /home/yaohui.c/work/afl-pt/afl-2.42b/pt_mode/glibc-2.19/pt-build/libc_pic.a(memcmp.os)
 .eh_frame      0x0000000000002168       0x78 /home/yaohui.c/work/afl-pt/afl-2.42b/pt_mode/glibc-2.19/pt-build/libc_pic.a(memmove.os)
 .eh_frame      0x00000000000021e0       0x68 /home/yaohui.c/work/afl-pt/afl-2.42b/pt_mode/glibc-2.19/pt-build/libc_pic.a(memset.os)
 .eh_frame      0x0000000000002248       0x80 /home/yaohui.c/work/afl-pt/afl-2.42b/pt_mode/glibc-2.19/pt-build/libc_pic.a(mempcpy.os)
 .eh_frame      0x00000000000022c8       0x40 /home/yaohui.c/work/afl-pt/afl-2.42b/pt_mode/glibc-2.19/pt-build/libc_pic.a(stpcpy.os)
 .eh_frame      0x0000000000002308       0x80 /home/yaohui.c/work/afl-pt/afl-2.42b/pt_mode/glibc-2.19/pt-build/libc_pic.a(memcpy.os)
 .eh_frame      0x0000000000002388       0xa0 /home/yaohui.c/work/afl-pt/afl-2.42b/pt_mode/glibc-2.19/pt-build/libc_pic.a(wordcopy.os)
 .eh_frame      0x0000000000002428       0x30 /home/yaohui.c/work/afl-pt/afl-2.42b/pt_mode/glibc-2.19/pt-build/libc_pic.a(rawmemchr.os)
 .eh_frame      0x0000000000002458       0x30 /home/yaohui.c/work/afl-pt/afl-2.42b/pt_mode/glibc-2.19/pt-build/libc_pic.a(strcmp-ssse3.os)
 .eh_frame      0x0000000000002488       0x30 /home/yaohui.c/work/afl-pt/afl-2.42b/pt_mode/glibc-2.19/pt-build/libc_pic.a(strcmp-sse2-unaligned.os)
 .eh_frame      0x00000000000024b8       0x30 /home/yaohui.c/work/afl-pt/afl-2.42b/pt_mode/glibc-2.19/pt-build/libc_pic.a(memcmp-sse4.os)
 .eh_frame      0x00000000000024e8       0x40 /home/yaohui.c/work/afl-pt/afl-2.42b/pt_mode/glibc-2.19/pt-build/libc_pic.a(memcpy-ssse3.os)
 .eh_frame      0x0000000000002528       0x30 /home/yaohui.c/work/afl-pt/afl-2.42b/pt_mode/glibc-2.19/pt-build/libc_pic.a(memcpy-sse2-unaligned.os)
 .eh_frame      0x0000000000002558       0x40 /home/yaohui.c/work/afl-pt/afl-2.42b/pt_mode/glibc-2.19/pt-build/libc_pic.a(mempcpy-ssse3.os)
 .eh_frame      0x0000000000002598       0x40 /home/yaohui.c/work/afl-pt/afl-2.42b/pt_mode/glibc-2.19/pt-build/libc_pic.a(memmove-ssse3.os)
 .eh_frame      0x00000000000025d8       0x40 /home/yaohui.c/work/afl-pt/afl-2.42b/pt_mode/glibc-2.19/pt-build/libc_pic.a(mempcpy-ssse3-back.os)
 .eh_frame      0x0000000000002618       0x40 /home/yaohui.c/work/afl-pt/afl-2.42b/pt_mode/glibc-2.19/pt-build/libc_pic.a(memmove-ssse3-back.os)
 .eh_frame      0x0000000000002658       0x30 /home/yaohui.c/work/afl-pt/afl-2.42b/pt_mode/glibc-2.19/pt-build/libc_pic.a(strcpy-ssse3.os)
 .eh_frame      0x0000000000002688       0x30 /home/yaohui.c/work/afl-pt/afl-2.42b/pt_mode/glibc-2.19/pt-build/libc_pic.a(stpcpy-ssse3.os)
 .eh_frame      0x00000000000026b8       0x30 /home/yaohui.c/work/afl-pt/afl-2.42b/pt_mode/glibc-2.19/pt-build/libc_pic.a(strcpy-sse2-unaligned.os)
 .eh_frame      0x00000000000026e8       0x30 /home/yaohui.c/work/afl-pt/afl-2.42b/pt_mode/glibc-2.19/pt-build/libc_pic.a(stpcpy-sse2-unaligned.os)
 .eh_frame      0x0000000000002718       0x30 /home/yaohui.c/work/afl-pt/afl-2.42b/pt_mode/glibc-2.19/pt-build/libc_pic.a(strchr-sse2-no-bsf.os)
 .eh_frame      0x0000000000002748       0x30 /home/yaohui.c/work/afl-pt/afl-2.42b/pt_mode/glibc-2.19/pt-build/libc_pic.a(memcmp-ssse3.os)
 .eh_frame      0x0000000000002778      0x198 /home/yaohui.c/work/afl-pt/afl-2.42b/pt_mode/glibc-2.19/pt-build/libc_pic.a(cacheinfo.os)
 .eh_frame      0x0000000000002910       0x38 /home/yaohui.c/work/afl-pt/afl-2.42b/pt_mode/glibc-2.19/pt-build/libc_pic.a(closedir.os)
 .eh_frame      0x0000000000002948      0x118 /home/yaohui.c/work/afl-pt/afl-2.42b/pt_mode/glibc-2.19/pt-build/libc_pic.a(readdir.os)
 .eh_frame      0x0000000000002a60       0xf8 /home/yaohui.c/work/afl-pt/afl-2.42b/pt_mode/glibc-2.19/pt-build/libc_pic.a(rewinddir.os)
 .eh_frame      0x0000000000002b58       0x58 /home/yaohui.c/work/afl-pt/afl-2.42b/pt_mode/glibc-2.19/pt-build/libc_pic.a(getdents.os)
 .eh_frame      0x0000000000002bb0       0x48 /home/yaohui.c/work/afl-pt/afl-2.42b/pt_mode/glibc-2.19/pt-build/libc_pic.a(fdopendir.os)
 .eh_frame      0x0000000000002bf8       0x30 /home/yaohui.c/work/afl-pt/afl-2.42b/pt_mode/glibc-2.19/pt-build/libc_pic.a(uname.os)
 .eh_frame      0x0000000000002c28       0x40 /home/yaohui.c/work/afl-pt/afl-2.42b/pt_mode/glibc-2.19/pt-build/libc_pic.a(waitpid.os)
 .eh_frame      0x0000000000002c68       0x30 /home/yaohui.c/work/afl-pt/afl-2.42b/pt_mode/glibc-2.19/pt-build/libc_pic.a(_exit.os)
 .eh_frame      0x0000000000002c98       0x30 /home/yaohui.c/work/afl-pt/afl-2.42b/pt_mode/glibc-2.19/pt-build/libc_pic.a(getpid.os)
 .eh_frame      0x0000000000002cc8       0x30 /home/yaohui.c/work/afl-pt/afl-2.42b/pt_mode/glibc-2.19/pt-build/libc_pic.a(xstat.os)
 .eh_frame      0x0000000000002cf8       0x30 /home/yaohui.c/work/afl-pt/afl-2.42b/pt_mode/glibc-2.19/pt-build/libc_pic.a(fxstat.os)
 .eh_frame      0x0000000000002d28       0x30 /home/yaohui.c/work/afl-pt/afl-2.42b/pt_mode/glibc-2.19/pt-build/libc_pic.a(lxstat.os)
 .eh_frame      0x0000000000002d58       0x30 /home/yaohui.c/work/afl-pt/afl-2.42b/pt_mode/glibc-2.19/pt-build/libc_pic.a(open.os)
 .eh_frame      0x0000000000002d88       0x30 /home/yaohui.c/work/afl-pt/afl-2.42b/pt_mode/glibc-2.19/pt-build/libc_pic.a(read.os)
 .eh_frame      0x0000000000002db8       0x30 /home/yaohui.c/work/afl-pt/afl-2.42b/pt_mode/glibc-2.19/pt-build/libc_pic.a(write.os)
 .eh_frame      0x0000000000002de8       0x30 /home/yaohui.c/work/afl-pt/afl-2.42b/pt_mode/glibc-2.19/pt-build/libc_pic.a(access.os)
 .eh_frame      0x0000000000002e18       0x70 /home/yaohui.c/work/afl-pt/afl-2.42b/pt_mode/glibc-2.19/pt-build/libc_pic.a(fcntl.os)
 .eh_frame      0x0000000000002e88       0x30 /home/yaohui.c/work/afl-pt/afl-2.42b/pt_mode/glibc-2.19/pt-build/libc_pic.a(close.os)
 .eh_frame      0x0000000000002eb8       0x30 /home/yaohui.c/work/afl-pt/afl-2.42b/pt_mode/glibc-2.19/pt-build/libc_pic.a(mmap.os)
 .eh_frame      0x0000000000002ee8       0x30 /home/yaohui.c/work/afl-pt/afl-2.42b/pt_mode/glibc-2.19/pt-build/libc_pic.a(munmap.os)
 .eh_frame      0x0000000000002f18       0x30 /home/yaohui.c/work/afl-pt/afl-2.42b/pt_mode/glibc-2.19/pt-build/libc_pic.a(mprotect.os)
 .eh_frame      0x0000000000002f48       0x30 /home/yaohui.c/work/afl-pt/afl-2.42b/pt_mode/glibc-2.19/pt-build/libc_pic.a(llseek.os)
 .eh_frame      0x0000000000002f78       0x80 /home/yaohui.c/work/afl-pt/afl-2.42b/pt_mode/glibc-2.19/pt-build/libc_pic.a(profil.os)
 .eh_frame      0x0000000000002ff8       0x30 /home/yaohui.c/work/afl-pt/afl-2.42b/pt_mode/glibc-2.19/pt-build/libc_pic.a(prof-freq.os)
 .eh_frame      0x0000000000003028       0x60 /home/yaohui.c/work/afl-pt/afl-2.42b/pt_mode/glibc-2.19/pt-build/libc_pic.a(libc-lowlevellock.os)
 .eh_frame      0x0000000000003088       0x40 /home/yaohui.c/work/afl-pt/afl-2.42b/pt_mode/glibc-2.19/pt-build/libc_pic.a(libc-cancellation.os)
 .eh_frame      0x00000000000030c8       0x50 /home/yaohui.c/work/afl-pt/afl-2.42b/pt_mode/glibc-2.19/pt-build/libc_pic.a(init-arch.os)
 .eh_frame      0x0000000000003118       0xe8 /home/yaohui.c/work/afl-pt/afl-2.42b/pt_mode/glibc-2.19/pt-build/libc_pic.a(sigaction.os)
 .eh_frame      0x0000000000003200       0x30 /home/yaohui.c/work/afl-pt/afl-2.42b/pt_mode/glibc-2.19/pt-build/libc_pic.a(setitimer.os)
 .eh_frame      0x0000000000003230      0x310 /home/yaohui.c/work/afl-pt/afl-2.42b/pt_mode/glibc-2.19/pt-build/libc_pic.a(forward.os)
 .eh_frame      0x0000000000003540       0x58 /home/yaohui.c/work/afl-pt/afl-2.42b/pt_mode/glibc-2.19/pt-build/libc_pic.a(exit.os)
 .eh_frame      0x0000000000003598      0x160 /home/yaohui.c/work/afl-pt/afl-2.42b/pt_mode/glibc-2.19/pt-build/libc_pic.a(cxa_atexit.os)
 .eh_frame      0x00000000000036f8       0x80 /home/yaohui.c/work/afl-pt/afl-2.42b/pt_mode/glibc-2.19/pt-build/libc_pic.a(cxa_thread_atexit_impl.os)

.gcc_except_table
 *(.gcc_except_table .gcc_except_table.*)

.exception_ranges
 *(.exception_ranges .exception_ranges*)

.eh_frame
 *(.eh_frame)

.gcc_except_table
 *(.gcc_except_table .gcc_except_table.*)

.exception_ranges
 *(.exception_ranges .exception_ranges*)

.tdata
 *(.tdata)

.tbss           0x0000000000000000       0x20
 *(.tbss)
 .tbss          0x0000000000000000        0x4 /home/yaohui.c/work/afl-pt/afl-2.42b/pt_mode/glibc-2.19/pt-build/libc_pic.a(errno.os)
                0x0000000000000000                errno
                0x0000000000000000                __libc_errno
 *fill*         0x0000000000000004        0x4 
 .tbss          0x0000000000000008       0x18 /home/yaohui.c/work/afl-pt/afl-2.42b/pt_mode/glibc-2.19/pt-build/libc_pic.a(cxa_thread_atexit_impl.os)

.preinit_array
 *(.preinit_array)

.jcr
 *(.jcr)

.dynamic
 *(.dynamic)

.got
 *(.got)
 *(.igot)

.got.plt
 *(.got.plt)
 *(.igot.plt)

.data           0x0000000000000000      0xfc8
 *(.data)
 .data          0x0000000000000000      0xf84 /home/yaohui.c/work/afl-pt/afl-2.42b/pt_mode/glibc-2.19/pt-build/elf/dl-allobjs.os
                0x0000000000000000                _rtld_global
                0x0000000000000000                _rtld_local
 .data          0x0000000000000f84        0x0 /home/yaohui.c/work/afl-pt/afl-2.42b/pt_mode/glibc-2.19/pt-build/libc_pic.a(check_fds.os)
 .data          0x0000000000000f84        0x0 /home/yaohui.c/work/afl-pt/afl-2.42b/pt_mode/glibc-2.19/pt-build/libc_pic.a(errno.os)
 .data          0x0000000000000f84        0x0 /home/yaohui.c/work/afl-pt/afl-2.42b/pt_mode/glibc-2.19/pt-build/libc_pic.a(setjmp.os)
 .data          0x0000000000000f84        0x0 /home/yaohui.c/work/afl-pt/afl-2.42b/pt_mode/glibc-2.19/pt-build/libc_pic.a(__longjmp.os)
 .data          0x0000000000000f84        0x0 /home/yaohui.c/work/afl-pt/afl-2.42b/pt_mode/glibc-2.19/pt-build/libc_pic.a(strchr.os)
 .data          0x0000000000000f84        0x0 /home/yaohui.c/work/afl-pt/afl-2.42b/pt_mode/glibc-2.19/pt-build/libc_pic.a(strcmp.os)
 .data          0x0000000000000f84        0x0 /home/yaohui.c/work/afl-pt/afl-2.42b/pt_mode/glibc-2.19/pt-build/libc_pic.a(strcpy.os)
 .data          0x0000000000000f84        0x0 /home/yaohui.c/work/afl-pt/afl-2.42b/pt_mode/glibc-2.19/pt-build/libc_pic.a(strlen.os)
 .data          0x0000000000000f84        0x0 /home/yaohui.c/work/afl-pt/afl-2.42b/pt_mode/glibc-2.19/pt-build/libc_pic.a(strnlen.os)
 .data          0x0000000000000f84        0x0 /home/yaohui.c/work/afl-pt/afl-2.42b/pt_mode/glibc-2.19/pt-build/libc_pic.a(memchr.os)
 .data          0x0000000000000f84        0x0 /home/yaohui.c/work/afl-pt/afl-2.42b/pt_mode/glibc-2.19/pt-build/libc_pic.a(memcmp.os)
 .data          0x0000000000000f84        0x0 /home/yaohui.c/work/afl-pt/afl-2.42b/pt_mode/glibc-2.19/pt-build/libc_pic.a(memmove.os)
 .data          0x0000000000000f84        0x0 /home/yaohui.c/work/afl-pt/afl-2.42b/pt_mode/glibc-2.19/pt-build/libc_pic.a(memset.os)
 .data          0x0000000000000f84        0x0 /home/yaohui.c/work/afl-pt/afl-2.42b/pt_mode/glibc-2.19/pt-build/libc_pic.a(mempcpy.os)
 .data          0x0000000000000f84        0x0 /home/yaohui.c/work/afl-pt/afl-2.42b/pt_mode/glibc-2.19/pt-build/libc_pic.a(stpcpy.os)
 .data          0x0000000000000f84        0x0 /home/yaohui.c/work/afl-pt/afl-2.42b/pt_mode/glibc-2.19/pt-build/libc_pic.a(memcpy.os)
 .data          0x0000000000000f84        0x0 /home/yaohui.c/work/afl-pt/afl-2.42b/pt_mode/glibc-2.19/pt-build/libc_pic.a(wordcopy.os)
 .data          0x0000000000000f84        0x0 /home/yaohui.c/work/afl-pt/afl-2.42b/pt_mode/glibc-2.19/pt-build/libc_pic.a(rawmemchr.os)
 .data          0x0000000000000f84        0x0 /home/yaohui.c/work/afl-pt/afl-2.42b/pt_mode/glibc-2.19/pt-build/libc_pic.a(strcmp-ssse3.os)
 .data          0x0000000000000f84        0x0 /home/yaohui.c/work/afl-pt/afl-2.42b/pt_mode/glibc-2.19/pt-build/libc_pic.a(strcmp-sse2-unaligned.os)
 .data          0x0000000000000f84        0x0 /home/yaohui.c/work/afl-pt/afl-2.42b/pt_mode/glibc-2.19/pt-build/libc_pic.a(memcmp-sse4.os)
 .data          0x0000000000000f84        0x0 /home/yaohui.c/work/afl-pt/afl-2.42b/pt_mode/glibc-2.19/pt-build/libc_pic.a(memcpy-ssse3.os)
 .data          0x0000000000000f84        0x0 /home/yaohui.c/work/afl-pt/afl-2.42b/pt_mode/glibc-2.19/pt-build/libc_pic.a(memcpy-sse2-unaligned.os)
 .data          0x0000000000000f84        0x0 /home/yaohui.c/work/afl-pt/afl-2.42b/pt_mode/glibc-2.19/pt-build/libc_pic.a(mempcpy-ssse3.os)
 .data          0x0000000000000f84        0x0 /home/yaohui.c/work/afl-pt/afl-2.42b/pt_mode/glibc-2.19/pt-build/libc_pic.a(memmove-ssse3.os)
 .data          0x0000000000000f84        0x0 /home/yaohui.c/work/afl-pt/afl-2.42b/pt_mode/glibc-2.19/pt-build/libc_pic.a(mempcpy-ssse3-back.os)
 .data          0x0000000000000f84        0x0 /home/yaohui.c/work/afl-pt/afl-2.42b/pt_mode/glibc-2.19/pt-build/libc_pic.a(memmove-ssse3-back.os)
 .data          0x0000000000000f84        0x0 /home/yaohui.c/work/afl-pt/afl-2.42b/pt_mode/glibc-2.19/pt-build/libc_pic.a(strcpy-ssse3.os)
 .data          0x0000000000000f84        0x0 /home/yaohui.c/work/afl-pt/afl-2.42b/pt_mode/glibc-2.19/pt-build/libc_pic.a(stpcpy-ssse3.os)
 .data          0x0000000000000f84        0x0 /home/yaohui.c/work/afl-pt/afl-2.42b/pt_mode/glibc-2.19/pt-build/libc_pic.a(strcpy-sse2-unaligned.os)
 .data          0x0000000000000f84        0x0 /home/yaohui.c/work/afl-pt/afl-2.42b/pt_mode/glibc-2.19/pt-build/libc_pic.a(stpcpy-sse2-unaligned.os)
 .data          0x0000000000000f84        0x0 /home/yaohui.c/work/afl-pt/afl-2.42b/pt_mode/glibc-2.19/pt-build/libc_pic.a(strchr-sse2-no-bsf.os)
 .data          0x0000000000000f84        0x0 /home/yaohui.c/work/afl-pt/afl-2.42b/pt_mode/glibc-2.19/pt-build/libc_pic.a(memcmp-ssse3.os)
 *fill*         0x0000000000000f84        0x4 
 .data          0x0000000000000f88       0x40 /home/yaohui.c/work/afl-pt/afl-2.42b/pt_mode/glibc-2.19/pt-build/libc_pic.a(cacheinfo.os)
                0x0000000000000f88                __x86_raw_shared_cache_size
                0x0000000000000f90                __x86_raw_shared_cache_size_half
                0x0000000000000f98                __x86_shared_cache_size
                0x0000000000000fa0                __x86_shared_cache_size_half
                0x0000000000000fa8                __x86_raw_data_cache_size
                0x0000000000000fb0                __x86_raw_data_cache_size_half
                0x0000000000000fb8                __x86_data_cache_size
                0x0000000000000fc0                __x86_data_cache_size_half
 .data          0x0000000000000fc8        0x0 /home/yaohui.c/work/afl-pt/afl-2.42b/pt_mode/glibc-2.19/pt-build/libc_pic.a(closedir.os)
 .data          0x0000000000000fc8        0x0 /home/yaohui.c/work/afl-pt/afl-2.42b/pt_mode/glibc-2.19/pt-build/libc_pic.a(readdir.os)
 .data          0x0000000000000fc8        0x0 /home/yaohui.c/work/afl-pt/afl-2.42b/pt_mode/glibc-2.19/pt-build/libc_pic.a(rewinddir.os)
 .data          0x0000000000000fc8        0x0 /home/yaohui.c/work/afl-pt/afl-2.42b/pt_mode/glibc-2.19/pt-build/libc_pic.a(getdents.os)
 .data          0x0000000000000fc8        0x0 /home/yaohui.c/work/afl-pt/afl-2.42b/pt_mode/glibc-2.19/pt-build/libc_pic.a(fdopendir.os)
 .data          0x0000000000000fc8        0x0 /home/yaohui.c/work/afl-pt/afl-2.42b/pt_mode/glibc-2.19/pt-build/libc_pic.a(uname.os)
 .data          0x0000000000000fc8        0x0 /home/yaohui.c/work/afl-pt/afl-2.42b/pt_mode/glibc-2.19/pt-build/libc_pic.a(waitpid.os)
 .data          0x0000000000000fc8        0x0 /home/yaohui.c/work/afl-pt/afl-2.42b/pt_mode/glibc-2.19/pt-build/libc_pic.a(_exit.os)
 .data          0x0000000000000fc8        0x0 /home/yaohui.c/work/afl-pt/afl-2.42b/pt_mode/glibc-2.19/pt-build/libc_pic.a(getpid.os)
 .data          0x0000000000000fc8        0x0 /home/yaohui.c/work/afl-pt/afl-2.42b/pt_mode/glibc-2.19/pt-build/libc_pic.a(environ.os)
 .data          0x0000000000000fc8        0x0 /home/yaohui.c/work/afl-pt/afl-2.42b/pt_mode/glibc-2.19/pt-build/libc_pic.a(xstat.os)
 .data          0x0000000000000fc8        0x0 /home/yaohui.c/work/afl-pt/afl-2.42b/pt_mode/glibc-2.19/pt-build/libc_pic.a(fxstat.os)
 .data          0x0000000000000fc8        0x0 /home/yaohui.c/work/afl-pt/afl-2.42b/pt_mode/glibc-2.19/pt-build/libc_pic.a(lxstat.os)
 .data          0x0000000000000fc8        0x0 /home/yaohui.c/work/afl-pt/afl-2.42b/pt_mode/glibc-2.19/pt-build/libc_pic.a(open.os)
 .data          0x0000000000000fc8        0x0 /home/yaohui.c/work/afl-pt/afl-2.42b/pt_mode/glibc-2.19/pt-build/libc_pic.a(read.os)
 .data          0x0000000000000fc8        0x0 /home/yaohui.c/work/afl-pt/afl-2.42b/pt_mode/glibc-2.19/pt-build/libc_pic.a(write.os)
 .data          0x0000000000000fc8        0x0 /home/yaohui.c/work/afl-pt/afl-2.42b/pt_mode/glibc-2.19/pt-build/libc_pic.a(access.os)
 .data          0x0000000000000fc8        0x0 /home/yaohui.c/work/afl-pt/afl-2.42b/pt_mode/glibc-2.19/pt-build/libc_pic.a(fcntl.os)
 .data          0x0000000000000fc8        0x0 /home/yaohui.c/work/afl-pt/afl-2.42b/pt_mode/glibc-2.19/pt-build/libc_pic.a(close.os)
 .data          0x0000000000000fc8        0x0 /home/yaohui.c/work/afl-pt/afl-2.42b/pt_mode/glibc-2.19/pt-build/libc_pic.a(mmap.os)
 .data          0x0000000000000fc8        0x0 /home/yaohui.c/work/afl-pt/afl-2.42b/pt_mode/glibc-2.19/pt-build/libc_pic.a(munmap.os)
 .data          0x0000000000000fc8        0x0 /home/yaohui.c/work/afl-pt/afl-2.42b/pt_mode/glibc-2.19/pt-build/libc_pic.a(mprotect.os)
 .data          0x0000000000000fc8        0x0 /home/yaohui.c/work/afl-pt/afl-2.42b/pt_mode/glibc-2.19/pt-build/libc_pic.a(llseek.os)
 .data          0x0000000000000fc8        0x0 /home/yaohui.c/work/afl-pt/afl-2.42b/pt_mode/glibc-2.19/pt-build/libc_pic.a(profil.os)
 .data          0x0000000000000fc8        0x0 /home/yaohui.c/work/afl-pt/afl-2.42b/pt_mode/glibc-2.19/pt-build/libc_pic.a(prof-freq.os)
 .data          0x0000000000000fc8        0x0 /home/yaohui.c/work/afl-pt/afl-2.42b/pt_mode/glibc-2.19/pt-build/libc_pic.a(libc-lowlevellock.os)
 .data          0x0000000000000fc8        0x0 /home/yaohui.c/work/afl-pt/afl-2.42b/pt_mode/glibc-2.19/pt-build/libc_pic.a(libc-cancellation.os)
 .data          0x0000000000000fc8        0x0 /home/yaohui.c/work/afl-pt/afl-2.42b/pt_mode/glibc-2.19/pt-build/libc_pic.a(libc_multiple_threads.os)
 .data          0x0000000000000fc8        0x0 /home/yaohui.c/work/afl-pt/afl-2.42b/pt_mode/glibc-2.19/pt-build/libc_pic.a(init-arch.os)
 .data          0x0000000000000fc8        0x0 /home/yaohui.c/work/afl-pt/afl-2.42b/pt_mode/glibc-2.19/pt-build/libc_pic.a(sigaction.os)
 .data          0x0000000000000fc8        0x0 /home/yaohui.c/work/afl-pt/afl-2.42b/pt_mode/glibc-2.19/pt-build/libc_pic.a(setitimer.os)
 .data          0x0000000000000fc8        0x0 /home/yaohui.c/work/afl-pt/afl-2.42b/pt_mode/glibc-2.19/pt-build/libc_pic.a(forward.os)
 .data          0x0000000000000fc8        0x0 /home/yaohui.c/work/afl-pt/afl-2.42b/pt_mode/glibc-2.19/pt-build/libc_pic.a(exit.os)
 .data          0x0000000000000fc8        0x0 /home/yaohui.c/work/afl-pt/afl-2.42b/pt_mode/glibc-2.19/pt-build/libc_pic.a(cxa_atexit.os)
 .data          0x0000000000000fc8        0x0 /home/yaohui.c/work/afl-pt/afl-2.42b/pt_mode/glibc-2.19/pt-build/libc_pic.a(cxa_thread_atexit_impl.os)

.data.rel.ro    0x0000000000000000      0x26c
 .data.rel.ro   0x0000000000000000      0x26c /home/yaohui.c/work/afl-pt/afl-2.42b/pt_mode/glibc-2.19/pt-build/elf/dl-allobjs.os
                0x00000000000000c0                _rtld_global_ro
                0x00000000000000c0                _rtld_local_ro
                0x00000000000001f0                __pointer_chk_guard_local
                0x00000000000001f8                _dl_skip_args
                0x0000000000000200                _dl_argv_internal
                0x0000000000000200                _dl_argv
                0x0000000000000208                _dl_argc
                0x0000000000000250                __stack_prot
                0x0000000000000258                _dl_random
                0x0000000000000260                __libc_stack_end
                0x0000000000000260                __GI___libc_stack_end
                0x0000000000000268                __libc_enable_secure_internal
                0x0000000000000268                __libc_enable_secure

.init_array     0x0000000000000000        0x8
 .init_array    0x0000000000000000        0x8 /home/yaohui.c/work/afl-pt/afl-2.42b/pt_mode/glibc-2.19/pt-build/libc_pic.a(cacheinfo.os)

.data.rel.local
                0x0000000000000000        0x8
 .data.rel.local
                0x0000000000000000        0x8 /home/yaohui.c/work/afl-pt/afl-2.42b/pt_mode/glibc-2.19/pt-build/libc_pic.a(cxa_atexit.os)
                0x0000000000000000                __exit_funcs

.data1
 *(.data1)

.bss            0x0000000000000000      0x634
 *(.dynbss)
 *(.bss)
 .bss           0x0000000000000000      0x124 /home/yaohui.c/work/afl-pt/afl-2.42b/pt_mode/glibc-2.19/pt-build/elf/dl-allobjs.os
                0x00000000000000f8                __libc_multiple_libcs
                0x0000000000000118                __curbrk
 .bss           0x0000000000000124        0x0 /home/yaohui.c/work/afl-pt/afl-2.42b/pt_mode/glibc-2.19/pt-build/libc_pic.a(check_fds.os)
 .bss           0x0000000000000124        0x0 /home/yaohui.c/work/afl-pt/afl-2.42b/pt_mode/glibc-2.19/pt-build/libc_pic.a(errno.os)
 .bss           0x0000000000000124        0x0 /home/yaohui.c/work/afl-pt/afl-2.42b/pt_mode/glibc-2.19/pt-build/libc_pic.a(setjmp.os)
 .bss           0x0000000000000124        0x0 /home/yaohui.c/work/afl-pt/afl-2.42b/pt_mode/glibc-2.19/pt-build/libc_pic.a(__longjmp.os)
 .bss           0x0000000000000124        0x0 /home/yaohui.c/work/afl-pt/afl-2.42b/pt_mode/glibc-2.19/pt-build/libc_pic.a(strchr.os)
 .bss           0x0000000000000124        0x0 /home/yaohui.c/work/afl-pt/afl-2.42b/pt_mode/glibc-2.19/pt-build/libc_pic.a(strcmp.os)
 .bss           0x0000000000000124        0x0 /home/yaohui.c/work/afl-pt/afl-2.42b/pt_mode/glibc-2.19/pt-build/libc_pic.a(strcpy.os)
 .bss           0x0000000000000124        0x0 /home/yaohui.c/work/afl-pt/afl-2.42b/pt_mode/glibc-2.19/pt-build/libc_pic.a(strlen.os)
 .bss           0x0000000000000124        0x0 /home/yaohui.c/work/afl-pt/afl-2.42b/pt_mode/glibc-2.19/pt-build/libc_pic.a(strnlen.os)
 .bss           0x0000000000000124        0x0 /home/yaohui.c/work/afl-pt/afl-2.42b/pt_mode/glibc-2.19/pt-build/libc_pic.a(memchr.os)
 .bss           0x0000000000000124        0x0 /home/yaohui.c/work/afl-pt/afl-2.42b/pt_mode/glibc-2.19/pt-build/libc_pic.a(memcmp.os)
 .bss           0x0000000000000124        0x0 /home/yaohui.c/work/afl-pt/afl-2.42b/pt_mode/glibc-2.19/pt-build/libc_pic.a(memmove.os)
 .bss           0x0000000000000124        0x0 /home/yaohui.c/work/afl-pt/afl-2.42b/pt_mode/glibc-2.19/pt-build/libc_pic.a(memset.os)
 .bss           0x0000000000000124        0x0 /home/yaohui.c/work/afl-pt/afl-2.42b/pt_mode/glibc-2.19/pt-build/libc_pic.a(mempcpy.os)
 .bss           0x0000000000000124        0x0 /home/yaohui.c/work/afl-pt/afl-2.42b/pt_mode/glibc-2.19/pt-build/libc_pic.a(stpcpy.os)
 .bss           0x0000000000000124        0x0 /home/yaohui.c/work/afl-pt/afl-2.42b/pt_mode/glibc-2.19/pt-build/libc_pic.a(memcpy.os)
 .bss           0x0000000000000124        0x0 /home/yaohui.c/work/afl-pt/afl-2.42b/pt_mode/glibc-2.19/pt-build/libc_pic.a(wordcopy.os)
 .bss           0x0000000000000124        0x0 /home/yaohui.c/work/afl-pt/afl-2.42b/pt_mode/glibc-2.19/pt-build/libc_pic.a(rawmemchr.os)
 .bss           0x0000000000000124        0x0 /home/yaohui.c/work/afl-pt/afl-2.42b/pt_mode/glibc-2.19/pt-build/libc_pic.a(strcmp-ssse3.os)
 .bss           0x0000000000000124        0x0 /home/yaohui.c/work/afl-pt/afl-2.42b/pt_mode/glibc-2.19/pt-build/libc_pic.a(strcmp-sse2-unaligned.os)
 .bss           0x0000000000000124        0x0 /home/yaohui.c/work/afl-pt/afl-2.42b/pt_mode/glibc-2.19/pt-build/libc_pic.a(memcmp-sse4.os)
 .bss           0x0000000000000124        0x0 /home/yaohui.c/work/afl-pt/afl-2.42b/pt_mode/glibc-2.19/pt-build/libc_pic.a(memcpy-ssse3.os)
 .bss           0x0000000000000124        0x0 /home/yaohui.c/work/afl-pt/afl-2.42b/pt_mode/glibc-2.19/pt-build/libc_pic.a(memcpy-sse2-unaligned.os)
 .bss           0x0000000000000124        0x0 /home/yaohui.c/work/afl-pt/afl-2.42b/pt_mode/glibc-2.19/pt-build/libc_pic.a(mempcpy-ssse3.os)
 .bss           0x0000000000000124        0x0 /home/yaohui.c/work/afl-pt/afl-2.42b/pt_mode/glibc-2.19/pt-build/libc_pic.a(memmove-ssse3.os)
 .bss           0x0000000000000124        0x0 /home/yaohui.c/work/afl-pt/afl-2.42b/pt_mode/glibc-2.19/pt-build/libc_pic.a(mempcpy-ssse3-back.os)
 .bss           0x0000000000000124        0x0 /home/yaohui.c/work/afl-pt/afl-2.42b/pt_mode/glibc-2.19/pt-build/libc_pic.a(memmove-ssse3-back.os)
 .bss           0x0000000000000124        0x0 /home/yaohui.c/work/afl-pt/afl-2.42b/pt_mode/glibc-2.19/pt-build/libc_pic.a(strcpy-ssse3.os)
 .bss           0x0000000000000124        0x0 /home/yaohui.c/work/afl-pt/afl-2.42b/pt_mode/glibc-2.19/pt-build/libc_pic.a(stpcpy-ssse3.os)
 .bss           0x0000000000000124        0x0 /home/yaohui.c/work/afl-pt/afl-2.42b/pt_mode/glibc-2.19/pt-build/libc_pic.a(strcpy-sse2-unaligned.os)
 .bss           0x0000000000000124        0x0 /home/yaohui.c/work/afl-pt/afl-2.42b/pt_mode/glibc-2.19/pt-build/libc_pic.a(stpcpy-sse2-unaligned.os)
 .bss           0x0000000000000124        0x0 /home/yaohui.c/work/afl-pt/afl-2.42b/pt_mode/glibc-2.19/pt-build/libc_pic.a(strchr-sse2-no-bsf.os)
 .bss           0x0000000000000124        0x0 /home/yaohui.c/work/afl-pt/afl-2.42b/pt_mode/glibc-2.19/pt-build/libc_pic.a(memcmp-ssse3.os)
 .bss           0x0000000000000124        0x0 /home/yaohui.c/work/afl-pt/afl-2.42b/pt_mode/glibc-2.19/pt-build/libc_pic.a(cacheinfo.os)
 .bss           0x0000000000000124        0x0 /home/yaohui.c/work/afl-pt/afl-2.42b/pt_mode/glibc-2.19/pt-build/libc_pic.a(closedir.os)
 .bss           0x0000000000000124        0x0 /home/yaohui.c/work/afl-pt/afl-2.42b/pt_mode/glibc-2.19/pt-build/libc_pic.a(readdir.os)
 .bss           0x0000000000000124        0x0 /home/yaohui.c/work/afl-pt/afl-2.42b/pt_mode/glibc-2.19/pt-build/libc_pic.a(rewinddir.os)
 .bss           0x0000000000000124        0x0 /home/yaohui.c/work/afl-pt/afl-2.42b/pt_mode/glibc-2.19/pt-build/libc_pic.a(getdents.os)
 .bss           0x0000000000000124        0x0 /home/yaohui.c/work/afl-pt/afl-2.42b/pt_mode/glibc-2.19/pt-build/libc_pic.a(fdopendir.os)
 .bss           0x0000000000000124        0x0 /home/yaohui.c/work/afl-pt/afl-2.42b/pt_mode/glibc-2.19/pt-build/libc_pic.a(uname.os)
 .bss           0x0000000000000124        0x0 /home/yaohui.c/work/afl-pt/afl-2.42b/pt_mode/glibc-2.19/pt-build/libc_pic.a(waitpid.os)
 .bss           0x0000000000000124        0x0 /home/yaohui.c/work/afl-pt/afl-2.42b/pt_mode/glibc-2.19/pt-build/libc_pic.a(_exit.os)
 .bss           0x0000000000000124        0x0 /home/yaohui.c/work/afl-pt/afl-2.42b/pt_mode/glibc-2.19/pt-build/libc_pic.a(getpid.os)
 *fill*         0x0000000000000124        0x4 
 .bss           0x0000000000000128        0x8 /home/yaohui.c/work/afl-pt/afl-2.42b/pt_mode/glibc-2.19/pt-build/libc_pic.a(environ.os)
                0x0000000000000128                _environ
                0x0000000000000128                __environ
                0x0000000000000128                environ
 .bss           0x0000000000000130        0x0 /home/yaohui.c/work/afl-pt/afl-2.42b/pt_mode/glibc-2.19/pt-build/libc_pic.a(xstat.os)
 .bss           0x0000000000000130        0x0 /home/yaohui.c/work/afl-pt/afl-2.42b/pt_mode/glibc-2.19/pt-build/libc_pic.a(fxstat.os)
 .bss           0x0000000000000130        0x0 /home/yaohui.c/work/afl-pt/afl-2.42b/pt_mode/glibc-2.19/pt-build/libc_pic.a(lxstat.os)
 .bss           0x0000000000000130        0x0 /home/yaohui.c/work/afl-pt/afl-2.42b/pt_mode/glibc-2.19/pt-build/libc_pic.a(open.os)
 .bss           0x0000000000000130        0x0 /home/yaohui.c/work/afl-pt/afl-2.42b/pt_mode/glibc-2.19/pt-build/libc_pic.a(read.os)
 .bss           0x0000000000000130        0x0 /home/yaohui.c/work/afl-pt/afl-2.42b/pt_mode/glibc-2.19/pt-build/libc_pic.a(write.os)
 .bss           0x0000000000000130        0x0 /home/yaohui.c/work/afl-pt/afl-2.42b/pt_mode/glibc-2.19/pt-build/libc_pic.a(access.os)
 .bss           0x0000000000000130        0x4 /home/yaohui.c/work/afl-pt/afl-2.42b/pt_mode/glibc-2.19/pt-build/libc_pic.a(fcntl.os)
 .bss           0x0000000000000134        0x0 /home/yaohui.c/work/afl-pt/afl-2.42b/pt_mode/glibc-2.19/pt-build/libc_pic.a(close.os)
 .bss           0x0000000000000134        0x0 /home/yaohui.c/work/afl-pt/afl-2.42b/pt_mode/glibc-2.19/pt-build/libc_pic.a(mmap.os)
 .bss           0x0000000000000134        0x0 /home/yaohui.c/work/afl-pt/afl-2.42b/pt_mode/glibc-2.19/pt-build/libc_pic.a(munmap.os)
 .bss           0x0000000000000134        0x0 /home/yaohui.c/work/afl-pt/afl-2.42b/pt_mode/glibc-2.19/pt-build/libc_pic.a(mprotect.os)
 .bss           0x0000000000000134        0x0 /home/yaohui.c/work/afl-pt/afl-2.42b/pt_mode/glibc-2.19/pt-build/libc_pic.a(llseek.os)
 *fill*         0x0000000000000134        0xc 
 .bss           0x0000000000000140       0xe0 /home/yaohui.c/work/afl-pt/afl-2.42b/pt_mode/glibc-2.19/pt-build/libc_pic.a(profil.os)
 .bss           0x0000000000000220        0x0 /home/yaohui.c/work/afl-pt/afl-2.42b/pt_mode/glibc-2.19/pt-build/libc_pic.a(prof-freq.os)
 .bss           0x0000000000000220        0x0 /home/yaohui.c/work/afl-pt/afl-2.42b/pt_mode/glibc-2.19/pt-build/libc_pic.a(libc-lowlevellock.os)
 .bss           0x0000000000000220        0x0 /home/yaohui.c/work/afl-pt/afl-2.42b/pt_mode/glibc-2.19/pt-build/libc_pic.a(libc-cancellation.os)
 .bss           0x0000000000000220        0x0 /home/yaohui.c/work/afl-pt/afl-2.42b/pt_mode/glibc-2.19/pt-build/libc_pic.a(libc_multiple_threads.os)
 .bss           0x0000000000000220        0x0 /home/yaohui.c/work/afl-pt/afl-2.42b/pt_mode/glibc-2.19/pt-build/libc_pic.a(init-arch.os)
 .bss           0x0000000000000220        0x0 /home/yaohui.c/work/afl-pt/afl-2.42b/pt_mode/glibc-2.19/pt-build/libc_pic.a(sigaction.os)
 .bss           0x0000000000000220        0x0 /home/yaohui.c/work/afl-pt/afl-2.42b/pt_mode/glibc-2.19/pt-build/libc_pic.a(setitimer.os)
 .bss           0x0000000000000220        0x0 /home/yaohui.c/work/afl-pt/afl-2.42b/pt_mode/glibc-2.19/pt-build/libc_pic.a(forward.os)
 .bss           0x0000000000000220        0x0 /home/yaohui.c/work/afl-pt/afl-2.42b/pt_mode/glibc-2.19/pt-build/libc_pic.a(exit.os)
 .bss           0x0000000000000220      0x414 /home/yaohui.c/work/afl-pt/afl-2.42b/pt_mode/glibc-2.19/pt-build/libc_pic.a(cxa_atexit.os)
 .bss           0x0000000000000634        0x0 /home/yaohui.c/work/afl-pt/afl-2.42b/pt_mode/glibc-2.19/pt-build/libc_pic.a(cxa_thread_atexit_impl.os)
 *(COMMON)
 COMMON         0x0000000000000634        0x0 /home/yaohui.c/work/afl-pt/afl-2.42b/pt_mode/glibc-2.19/pt-build/elf/dl-allobjs.os
 COMMON         0x0000000000000634        0x0 /home/yaohui.c/work/afl-pt/afl-2.42b/pt_mode/glibc-2.19/pt-build/libc_pic.a(cacheinfo.os)
 COMMON         0x0000000000000634        0x0 /home/yaohui.c/work/afl-pt/afl-2.42b/pt_mode/glibc-2.19/pt-build/libc_pic.a(libc_multiple_threads.os)
 COMMON         0x0000000000000634        0x0 /home/yaohui.c/work/afl-pt/afl-2.42b/pt_mode/glibc-2.19/pt-build/libc_pic.a(init-arch.os)
 COMMON         0x0000000000000634        0x0 /home/yaohui.c/work/afl-pt/afl-2.42b/pt_mode/glibc-2.19/pt-build/libc_pic.a(forward.os)
 COMMON         0x0000000000000634        0x0 /home/yaohui.c/work/afl-pt/afl-2.42b/pt_mode/glibc-2.19/pt-build/libc_pic.a(cxa_atexit.os)

.lbss
 *(.dynlbss)
 *(.lbss)
 *(LARGE_COMMON)

.lrodata
 *(.lrodata)

.ldata
 *(.ldata)

.stab
 *(.stab)

.stabstr
 *(.stabstr)

.stab.excl
 *(.stab.excl)

.stab.exclstr
 *(.stab.exclstr)

.stab.index
 *(.stab.index)

.stab.indexstr
 *(.stab.indexstr)

.comment        0x0000000000000000      0xa7c
 *(.comment)
 .comment       0x0000000000000000      0x5d8 /home/yaohui.c/work/afl-pt/afl-2.42b/pt_mode/glibc-2.19/pt-build/elf/dl-allobjs.os
 .comment       0x00000000000005d8       0x2c /home/yaohui.c/work/afl-pt/afl-2.42b/pt_mode/glibc-2.19/pt-build/libc_pic.a(check_fds.os)
 .comment       0x0000000000000604       0x2c /home/yaohui.c/work/afl-pt/afl-2.42b/pt_mode/glibc-2.19/pt-build/libc_pic.a(errno.os)
 .comment       0x0000000000000630       0x2c /home/yaohui.c/work/afl-pt/afl-2.42b/pt_mode/glibc-2.19/pt-build/libc_pic.a(memmove.os)
 .comment       0x000000000000065c       0x2c /home/yaohui.c/work/afl-pt/afl-2.42b/pt_mode/glibc-2.19/pt-build/libc_pic.a(wordcopy.os)
 .comment       0x0000000000000688       0x2c /home/yaohui.c/work/afl-pt/afl-2.42b/pt_mode/glibc-2.19/pt-build/libc_pic.a(cacheinfo.os)
 .comment       0x00000000000006b4       0x2c /home/yaohui.c/work/afl-pt/afl-2.42b/pt_mode/glibc-2.19/pt-build/libc_pic.a(closedir.os)
 .comment       0x00000000000006e0       0x2c /home/yaohui.c/work/afl-pt/afl-2.42b/pt_mode/glibc-2.19/pt-build/libc_pic.a(readdir.os)
 .comment       0x000000000000070c       0x2c /home/yaohui.c/work/afl-pt/afl-2.42b/pt_mode/glibc-2.19/pt-build/libc_pic.a(rewinddir.os)
 .comment       0x0000000000000738       0x2c /home/yaohui.c/work/afl-pt/afl-2.42b/pt_mode/glibc-2.19/pt-build/libc_pic.a(getdents.os)
 .comment       0x0000000000000764       0x2c /home/yaohui.c/work/afl-pt/afl-2.42b/pt_mode/glibc-2.19/pt-build/libc_pic.a(fdopendir.os)
 .comment       0x0000000000000790       0x2c /home/yaohui.c/work/afl-pt/afl-2.42b/pt_mode/glibc-2.19/pt-build/libc_pic.a(waitpid.os)
 .comment       0x00000000000007bc       0x2c /home/yaohui.c/work/afl-pt/afl-2.42b/pt_mode/glibc-2.19/pt-build/libc_pic.a(_exit.os)
 .comment       0x00000000000007e8       0x2c /home/yaohui.c/work/afl-pt/afl-2.42b/pt_mode/glibc-2.19/pt-build/libc_pic.a(getpid.os)
 .comment       0x0000000000000814       0x2c /home/yaohui.c/work/afl-pt/afl-2.42b/pt_mode/glibc-2.19/pt-build/libc_pic.a(environ.os)
 .comment       0x0000000000000840       0x2c /home/yaohui.c/work/afl-pt/afl-2.42b/pt_mode/glibc-2.19/pt-build/libc_pic.a(xstat.os)
 .comment       0x000000000000086c       0x2c /home/yaohui.c/work/afl-pt/afl-2.42b/pt_mode/glibc-2.19/pt-build/libc_pic.a(fxstat.os)
 .comment       0x0000000000000898       0x2c /home/yaohui.c/work/afl-pt/afl-2.42b/pt_mode/glibc-2.19/pt-build/libc_pic.a(lxstat.os)
 .comment       0x00000000000008c4       0x2c /home/yaohui.c/work/afl-pt/afl-2.42b/pt_mode/glibc-2.19/pt-build/libc_pic.a(fcntl.os)
 .comment       0x00000000000008f0       0x2c /home/yaohui.c/work/afl-pt/afl-2.42b/pt_mode/glibc-2.19/pt-build/libc_pic.a(profil.os)
 .comment       0x000000000000091c       0x2c /home/yaohui.c/work/afl-pt/afl-2.42b/pt_mode/glibc-2.19/pt-build/libc_pic.a(prof-freq.os)
 .comment       0x0000000000000948       0x2c /home/yaohui.c/work/afl-pt/afl-2.42b/pt_mode/glibc-2.19/pt-build/libc_pic.a(libc_multiple_threads.os)
 .comment       0x0000000000000974       0x2c /home/yaohui.c/work/afl-pt/afl-2.42b/pt_mode/glibc-2.19/pt-build/libc_pic.a(init-arch.os)
 .comment       0x00000000000009a0       0x2c /home/yaohui.c/work/afl-pt/afl-2.42b/pt_mode/glibc-2.19/pt-build/libc_pic.a(sigaction.os)
 .comment       0x00000000000009cc       0x2c /home/yaohui.c/work/afl-pt/afl-2.42b/pt_mode/glibc-2.19/pt-build/libc_pic.a(forward.os)
 .comment       0x00000000000009f8       0x2c /home/yaohui.c/work/afl-pt/afl-2.42b/pt_mode/glibc-2.19/pt-build/libc_pic.a(exit.os)
 .comment       0x0000000000000a24       0x2c /home/yaohui.c/work/afl-pt/afl-2.42b/pt_mode/glibc-2.19/pt-build/libc_pic.a(cxa_atexit.os)
 .comment       0x0000000000000a50       0x2c /home/yaohui.c/work/afl-pt/afl-2.42b/pt_mode/glibc-2.19/pt-build/libc_pic.a(cxa_thread_atexit_impl.os)

.note.GNU-stack
                0x0000000000000000        0x0
 .note.GNU-stack
                0x0000000000000000        0x0 /home/yaohui.c/work/afl-pt/afl-2.42b/pt_mode/glibc-2.19/pt-build/elf/dl-allobjs.os
 .note.GNU-stack
                0x0000000000000000        0x0 /home/yaohui.c/work/afl-pt/afl-2.42b/pt_mode/glibc-2.19/pt-build/libc_pic.a(check_fds.os)
 .note.GNU-stack
                0x0000000000000000        0x0 /home/yaohui.c/work/afl-pt/afl-2.42b/pt_mode/glibc-2.19/pt-build/libc_pic.a(errno.os)
 .note.GNU-stack
                0x0000000000000000        0x0 /home/yaohui.c/work/afl-pt/afl-2.42b/pt_mode/glibc-2.19/pt-build/libc_pic.a(setjmp.os)
 .note.GNU-stack
                0x0000000000000000        0x0 /home/yaohui.c/work/afl-pt/afl-2.42b/pt_mode/glibc-2.19/pt-build/libc_pic.a(__longjmp.os)
 .note.GNU-stack
                0x0000000000000000        0x0 /home/yaohui.c/work/afl-pt/afl-2.42b/pt_mode/glibc-2.19/pt-build/libc_pic.a(strchr.os)
 .note.GNU-stack
                0x0000000000000000        0x0 /home/yaohui.c/work/afl-pt/afl-2.42b/pt_mode/glibc-2.19/pt-build/libc_pic.a(strcmp.os)
 .note.GNU-stack
                0x0000000000000000        0x0 /home/yaohui.c/work/afl-pt/afl-2.42b/pt_mode/glibc-2.19/pt-build/libc_pic.a(strcpy.os)
 .note.GNU-stack
                0x0000000000000000        0x0 /home/yaohui.c/work/afl-pt/afl-2.42b/pt_mode/glibc-2.19/pt-build/libc_pic.a(strlen.os)
 .note.GNU-stack
                0x0000000000000000        0x0 /home/yaohui.c/work/afl-pt/afl-2.42b/pt_mode/glibc-2.19/pt-build/libc_pic.a(strnlen.os)
 .note.GNU-stack
                0x0000000000000000        0x0 /home/yaohui.c/work/afl-pt/afl-2.42b/pt_mode/glibc-2.19/pt-build/libc_pic.a(memchr.os)
 .note.GNU-stack
                0x0000000000000000        0x0 /home/yaohui.c/work/afl-pt/afl-2.42b/pt_mode/glibc-2.19/pt-build/libc_pic.a(memcmp.os)
 .note.GNU-stack
                0x0000000000000000        0x0 /home/yaohui.c/work/afl-pt/afl-2.42b/pt_mode/glibc-2.19/pt-build/libc_pic.a(memmove.os)
 .note.GNU-stack
                0x0000000000000000        0x0 /home/yaohui.c/work/afl-pt/afl-2.42b/pt_mode/glibc-2.19/pt-build/libc_pic.a(memset.os)
 .note.GNU-stack
                0x0000000000000000        0x0 /home/yaohui.c/work/afl-pt/afl-2.42b/pt_mode/glibc-2.19/pt-build/libc_pic.a(mempcpy.os)
 .note.GNU-stack
                0x0000000000000000        0x0 /home/yaohui.c/work/afl-pt/afl-2.42b/pt_mode/glibc-2.19/pt-build/libc_pic.a(stpcpy.os)
 .note.GNU-stack
                0x0000000000000000        0x0 /home/yaohui.c/work/afl-pt/afl-2.42b/pt_mode/glibc-2.19/pt-build/libc_pic.a(memcpy.os)
 .note.GNU-stack
                0x0000000000000000        0x0 /home/yaohui.c/work/afl-pt/afl-2.42b/pt_mode/glibc-2.19/pt-build/libc_pic.a(wordcopy.os)
 .note.GNU-stack
                0x0000000000000000        0x0 /home/yaohui.c/work/afl-pt/afl-2.42b/pt_mode/glibc-2.19/pt-build/libc_pic.a(rawmemchr.os)
 .note.GNU-stack
                0x0000000000000000        0x0 /home/yaohui.c/work/afl-pt/afl-2.42b/pt_mode/glibc-2.19/pt-build/libc_pic.a(strcmp-ssse3.os)
 .note.GNU-stack
                0x0000000000000000        0x0 /home/yaohui.c/work/afl-pt/afl-2.42b/pt_mode/glibc-2.19/pt-build/libc_pic.a(strcmp-sse2-unaligned.os)
 .note.GNU-stack
                0x0000000000000000        0x0 /home/yaohui.c/work/afl-pt/afl-2.42b/pt_mode/glibc-2.19/pt-build/libc_pic.a(memcmp-sse4.os)
 .note.GNU-stack
                0x0000000000000000        0x0 /home/yaohui.c/work/afl-pt/afl-2.42b/pt_mode/glibc-2.19/pt-build/libc_pic.a(memcpy-ssse3.os)
 .note.GNU-stack
                0x0000000000000000        0x0 /home/yaohui.c/work/afl-pt/afl-2.42b/pt_mode/glibc-2.19/pt-build/libc_pic.a(memcpy-sse2-unaligned.os)
 .note.GNU-stack
                0x0000000000000000        0x0 /home/yaohui.c/work/afl-pt/afl-2.42b/pt_mode/glibc-2.19/pt-build/libc_pic.a(mempcpy-ssse3.os)
 .note.GNU-stack
                0x0000000000000000        0x0 /home/yaohui.c/work/afl-pt/afl-2.42b/pt_mode/glibc-2.19/pt-build/libc_pic.a(memmove-ssse3.os)
 .note.GNU-stack
                0x0000000000000000        0x0 /home/yaohui.c/work/afl-pt/afl-2.42b/pt_mode/glibc-2.19/pt-build/libc_pic.a(mempcpy-ssse3-back.os)
 .note.GNU-stack
                0x0000000000000000        0x0 /home/yaohui.c/work/afl-pt/afl-2.42b/pt_mode/glibc-2.19/pt-build/libc_pic.a(memmove-ssse3-back.os)
 .note.GNU-stack
                0x0000000000000000        0x0 /home/yaohui.c/work/afl-pt/afl-2.42b/pt_mode/glibc-2.19/pt-build/libc_pic.a(strcpy-ssse3.os)
 .note.GNU-stack
                0x0000000000000000        0x0 /home/yaohui.c/work/afl-pt/afl-2.42b/pt_mode/glibc-2.19/pt-build/libc_pic.a(stpcpy-ssse3.os)
 .note.GNU-stack
                0x0000000000000000        0x0 /home/yaohui.c/work/afl-pt/afl-2.42b/pt_mode/glibc-2.19/pt-build/libc_pic.a(strcpy-sse2-unaligned.os)
 .note.GNU-stack
                0x0000000000000000        0x0 /home/yaohui.c/work/afl-pt/afl-2.42b/pt_mode/glibc-2.19/pt-build/libc_pic.a(stpcpy-sse2-unaligned.os)
 .note.GNU-stack
                0x0000000000000000        0x0 /home/yaohui.c/work/afl-pt/afl-2.42b/pt_mode/glibc-2.19/pt-build/libc_pic.a(strchr-sse2-no-bsf.os)
 .note.GNU-stack
                0x0000000000000000        0x0 /home/yaohui.c/work/afl-pt/afl-2.42b/pt_mode/glibc-2.19/pt-build/libc_pic.a(memcmp-ssse3.os)
 .note.GNU-stack
                0x0000000000000000        0x0 /home/yaohui.c/work/afl-pt/afl-2.42b/pt_mode/glibc-2.19/pt-build/libc_pic.a(cacheinfo.os)
 .note.GNU-stack
                0x0000000000000000        0x0 /home/yaohui.c/work/afl-pt/afl-2.42b/pt_mode/glibc-2.19/pt-build/libc_pic.a(closedir.os)
 .note.GNU-stack
                0x0000000000000000        0x0 /home/yaohui.c/work/afl-pt/afl-2.42b/pt_mode/glibc-2.19/pt-build/libc_pic.a(readdir.os)
 .note.GNU-stack
                0x0000000000000000        0x0 /home/yaohui.c/work/afl-pt/afl-2.42b/pt_mode/glibc-2.19/pt-build/libc_pic.a(rewinddir.os)
 .note.GNU-stack
                0x0000000000000000        0x0 /home/yaohui.c/work/afl-pt/afl-2.42b/pt_mode/glibc-2.19/pt-build/libc_pic.a(getdents.os)
 .note.GNU-stack
                0x0000000000000000        0x0 /home/yaohui.c/work/afl-pt/afl-2.42b/pt_mode/glibc-2.19/pt-build/libc_pic.a(fdopendir.os)
 .note.GNU-stack
                0x0000000000000000        0x0 /home/yaohui.c/work/afl-pt/afl-2.42b/pt_mode/glibc-2.19/pt-build/libc_pic.a(uname.os)
 .note.GNU-stack
                0x0000000000000000        0x0 /home/yaohui.c/work/afl-pt/afl-2.42b/pt_mode/glibc-2.19/pt-build/libc_pic.a(waitpid.os)
 .note.GNU-stack
                0x0000000000000000        0x0 /home/yaohui.c/work/afl-pt/afl-2.42b/pt_mode/glibc-2.19/pt-build/libc_pic.a(_exit.os)
 .note.GNU-stack
                0x0000000000000000        0x0 /home/yaohui.c/work/afl-pt/afl-2.42b/pt_mode/glibc-2.19/pt-build/libc_pic.a(getpid.os)
 .note.GNU-stack
                0x0000000000000000        0x0 /home/yaohui.c/work/afl-pt/afl-2.42b/pt_mode/glibc-2.19/pt-build/libc_pic.a(environ.os)
 .note.GNU-stack
                0x0000000000000000        0x0 /home/yaohui.c/work/afl-pt/afl-2.42b/pt_mode/glibc-2.19/pt-build/libc_pic.a(xstat.os)
 .note.GNU-stack
                0x0000000000000000        0x0 /home/yaohui.c/work/afl-pt/afl-2.42b/pt_mode/glibc-2.19/pt-build/libc_pic.a(fxstat.os)
 .note.GNU-stack
                0x0000000000000000        0x0 /home/yaohui.c/work/afl-pt/afl-2.42b/pt_mode/glibc-2.19/pt-build/libc_pic.a(lxstat.os)
 .note.GNU-stack
                0x0000000000000000        0x0 /home/yaohui.c/work/afl-pt/afl-2.42b/pt_mode/glibc-2.19/pt-build/libc_pic.a(open.os)
 .note.GNU-stack
                0x0000000000000000        0x0 /home/yaohui.c/work/afl-pt/afl-2.42b/pt_mode/glibc-2.19/pt-build/libc_pic.a(read.os)
 .note.GNU-stack
                0x0000000000000000        0x0 /home/yaohui.c/work/afl-pt/afl-2.42b/pt_mode/glibc-2.19/pt-build/libc_pic.a(write.os)
 .note.GNU-stack
                0x0000000000000000        0x0 /home/yaohui.c/work/afl-pt/afl-2.42b/pt_mode/glibc-2.19/pt-build/libc_pic.a(access.os)
 .note.GNU-stack
                0x0000000000000000        0x0 /home/yaohui.c/work/afl-pt/afl-2.42b/pt_mode/glibc-2.19/pt-build/libc_pic.a(fcntl.os)
 .note.GNU-stack
                0x0000000000000000        0x0 /home/yaohui.c/work/afl-pt/afl-2.42b/pt_mode/glibc-2.19/pt-build/libc_pic.a(close.os)
 .note.GNU-stack
                0x0000000000000000        0x0 /home/yaohui.c/work/afl-pt/afl-2.42b/pt_mode/glibc-2.19/pt-build/libc_pic.a(mmap.os)
 .note.GNU-stack
                0x0000000000000000        0x0 /home/yaohui.c/work/afl-pt/afl-2.42b/pt_mode/glibc-2.19/pt-build/libc_pic.a(munmap.os)
 .note.GNU-stack
                0x0000000000000000        0x0 /home/yaohui.c/work/afl-pt/afl-2.42b/pt_mode/glibc-2.19/pt-build/libc_pic.a(mprotect.os)
 .note.GNU-stack
                0x0000000000000000        0x0 /home/yaohui.c/work/afl-pt/afl-2.42b/pt_mode/glibc-2.19/pt-build/libc_pic.a(llseek.os)
 .note.GNU-stack
                0x0000000000000000        0x0 /home/yaohui.c/work/afl-pt/afl-2.42b/pt_mode/glibc-2.19/pt-build/libc_pic.a(profil.os)
 .note.GNU-stack
                0x0000000000000000        0x0 /home/yaohui.c/work/afl-pt/afl-2.42b/pt_mode/glibc-2.19/pt-build/libc_pic.a(prof-freq.os)
 .note.GNU-stack
                0x0000000000000000        0x0 /home/yaohui.c/work/afl-pt/afl-2.42b/pt_mode/glibc-2.19/pt-build/libc_pic.a(libc-lowlevellock.os)
 .note.GNU-stack
                0x0000000000000000        0x0 /home/yaohui.c/work/afl-pt/afl-2.42b/pt_mode/glibc-2.19/pt-build/libc_pic.a(libc-cancellation.os)
 .note.GNU-stack
                0x0000000000000000        0x0 /home/yaohui.c/work/afl-pt/afl-2.42b/pt_mode/glibc-2.19/pt-build/libc_pic.a(libc_multiple_threads.os)
 .note.GNU-stack
                0x0000000000000000        0x0 /home/yaohui.c/work/afl-pt/afl-2.42b/pt_mode/glibc-2.19/pt-build/libc_pic.a(init-arch.os)
 .note.GNU-stack
                0x0000000000000000        0x0 /home/yaohui.c/work/afl-pt/afl-2.42b/pt_mode/glibc-2.19/pt-build/libc_pic.a(sigaction.os)
 .note.GNU-stack
                0x0000000000000000        0x0 /home/yaohui.c/work/afl-pt/afl-2.42b/pt_mode/glibc-2.19/pt-build/libc_pic.a(setitimer.os)
 .note.GNU-stack
                0x0000000000000000        0x0 /home/yaohui.c/work/afl-pt/afl-2.42b/pt_mode/glibc-2.19/pt-build/libc_pic.a(forward.os)
 .note.GNU-stack
                0x0000000000000000        0x0 /home/yaohui.c/work/afl-pt/afl-2.42b/pt_mode/glibc-2.19/pt-build/libc_pic.a(exit.os)
 .note.GNU-stack
                0x0000000000000000        0x0 /home/yaohui.c/work/afl-pt/afl-2.42b/pt_mode/glibc-2.19/pt-build/libc_pic.a(cxa_atexit.os)
 .note.GNU-stack
                0x0000000000000000        0x0 /home/yaohui.c/work/afl-pt/afl-2.42b/pt_mode/glibc-2.19/pt-build/libc_pic.a(cxa_thread_atexit_impl.os)

.debug
 *(.debug)

.line
 *(.line)

.debug_srcinfo
 *(.debug_srcinfo)

.debug_sfnames
 *(.debug_sfnames)

.debug_aranges  0x0000000000000000     0x1480
 *(.debug_aranges)
 .debug_aranges
                0x0000000000000000      0x730 /home/yaohui.c/work/afl-pt/afl-2.42b/pt_mode/glibc-2.19/pt-build/elf/dl-allobjs.os
 .debug_aranges
                0x0000000000000730       0x30 /home/yaohui.c/work/afl-pt/afl-2.42b/pt_mode/glibc-2.19/pt-build/libc_pic.a(check_fds.os)
 .debug_aranges
                0x0000000000000760       0x20 /home/yaohui.c/work/afl-pt/afl-2.42b/pt_mode/glibc-2.19/pt-build/libc_pic.a(errno.os)
 .debug_aranges
                0x0000000000000780       0x30 /home/yaohui.c/work/afl-pt/afl-2.42b/pt_mode/glibc-2.19/pt-build/libc_pic.a(setjmp.os)
 .debug_aranges
                0x00000000000007b0       0x30 /home/yaohui.c/work/afl-pt/afl-2.42b/pt_mode/glibc-2.19/pt-build/libc_pic.a(__longjmp.os)
 .debug_aranges
                0x00000000000007e0       0x30 /home/yaohui.c/work/afl-pt/afl-2.42b/pt_mode/glibc-2.19/pt-build/libc_pic.a(strchr.os)
 .debug_aranges
                0x0000000000000810       0x40 /home/yaohui.c/work/afl-pt/afl-2.42b/pt_mode/glibc-2.19/pt-build/libc_pic.a(strcmp.os)
 .debug_aranges
                0x0000000000000850       0x30 /home/yaohui.c/work/afl-pt/afl-2.42b/pt_mode/glibc-2.19/pt-build/libc_pic.a(strcpy.os)
 .debug_aranges
                0x0000000000000880       0x30 /home/yaohui.c/work/afl-pt/afl-2.42b/pt_mode/glibc-2.19/pt-build/libc_pic.a(strlen.os)
 .debug_aranges
                0x00000000000008b0       0x30 /home/yaohui.c/work/afl-pt/afl-2.42b/pt_mode/glibc-2.19/pt-build/libc_pic.a(strnlen.os)
 .debug_aranges
                0x00000000000008e0       0x30 /home/yaohui.c/work/afl-pt/afl-2.42b/pt_mode/glibc-2.19/pt-build/libc_pic.a(memchr.os)
 .debug_aranges
                0x0000000000000910       0x30 /home/yaohui.c/work/afl-pt/afl-2.42b/pt_mode/glibc-2.19/pt-build/libc_pic.a(memcmp.os)
 .debug_aranges
                0x0000000000000940       0x30 /home/yaohui.c/work/afl-pt/afl-2.42b/pt_mode/glibc-2.19/pt-build/libc_pic.a(memmove.os)
 .debug_aranges
                0x0000000000000970       0x30 /home/yaohui.c/work/afl-pt/afl-2.42b/pt_mode/glibc-2.19/pt-build/libc_pic.a(memset.os)
 .debug_aranges
                0x00000000000009a0       0x30 /home/yaohui.c/work/afl-pt/afl-2.42b/pt_mode/glibc-2.19/pt-build/libc_pic.a(mempcpy.os)
 .debug_aranges
                0x00000000000009d0       0x30 /home/yaohui.c/work/afl-pt/afl-2.42b/pt_mode/glibc-2.19/pt-build/libc_pic.a(stpcpy.os)
 .debug_aranges
                0x0000000000000a00       0x30 /home/yaohui.c/work/afl-pt/afl-2.42b/pt_mode/glibc-2.19/pt-build/libc_pic.a(memcpy.os)
 .debug_aranges
                0x0000000000000a30       0x30 /home/yaohui.c/work/afl-pt/afl-2.42b/pt_mode/glibc-2.19/pt-build/libc_pic.a(wordcopy.os)
 .debug_aranges
                0x0000000000000a60       0x30 /home/yaohui.c/work/afl-pt/afl-2.42b/pt_mode/glibc-2.19/pt-build/libc_pic.a(rawmemchr.os)
 .debug_aranges
                0x0000000000000a90       0x30 /home/yaohui.c/work/afl-pt/afl-2.42b/pt_mode/glibc-2.19/pt-build/libc_pic.a(strcmp-ssse3.os)
 .debug_aranges
                0x0000000000000ac0       0x30 /home/yaohui.c/work/afl-pt/afl-2.42b/pt_mode/glibc-2.19/pt-build/libc_pic.a(strcmp-sse2-unaligned.os)
 .debug_aranges
                0x0000000000000af0       0x30 /home/yaohui.c/work/afl-pt/afl-2.42b/pt_mode/glibc-2.19/pt-build/libc_pic.a(memcmp-sse4.os)
 .debug_aranges
                0x0000000000000b20       0x30 /home/yaohui.c/work/afl-pt/afl-2.42b/pt_mode/glibc-2.19/pt-build/libc_pic.a(memcpy-ssse3.os)
 .debug_aranges
                0x0000000000000b50       0x30 /home/yaohui.c/work/afl-pt/afl-2.42b/pt_mode/glibc-2.19/pt-build/libc_pic.a(memcpy-sse2-unaligned.os)
 .debug_aranges
                0x0000000000000b80       0x30 /home/yaohui.c/work/afl-pt/afl-2.42b/pt_mode/glibc-2.19/pt-build/libc_pic.a(mempcpy-ssse3.os)
 .debug_aranges
                0x0000000000000bb0       0x30 /home/yaohui.c/work/afl-pt/afl-2.42b/pt_mode/glibc-2.19/pt-build/libc_pic.a(memmove-ssse3.os)
 .debug_aranges
                0x0000000000000be0       0x30 /home/yaohui.c/work/afl-pt/afl-2.42b/pt_mode/glibc-2.19/pt-build/libc_pic.a(mempcpy-ssse3-back.os)
 .debug_aranges
                0x0000000000000c10       0x30 /home/yaohui.c/work/afl-pt/afl-2.42b/pt_mode/glibc-2.19/pt-build/libc_pic.a(memmove-ssse3-back.os)
 .debug_aranges
                0x0000000000000c40       0x30 /home/yaohui.c/work/afl-pt/afl-2.42b/pt_mode/glibc-2.19/pt-build/libc_pic.a(strcpy-ssse3.os)
 .debug_aranges
                0x0000000000000c70       0x30 /home/yaohui.c/work/afl-pt/afl-2.42b/pt_mode/glibc-2.19/pt-build/libc_pic.a(stpcpy-ssse3.os)
 .debug_aranges
                0x0000000000000ca0       0x30 /home/yaohui.c/work/afl-pt/afl-2.42b/pt_mode/glibc-2.19/pt-build/libc_pic.a(strcpy-sse2-unaligned.os)
 .debug_aranges
                0x0000000000000cd0       0x30 /home/yaohui.c/work/afl-pt/afl-2.42b/pt_mode/glibc-2.19/pt-build/libc_pic.a(stpcpy-sse2-unaligned.os)
 .debug_aranges
                0x0000000000000d00       0x30 /home/yaohui.c/work/afl-pt/afl-2.42b/pt_mode/glibc-2.19/pt-build/libc_pic.a(strchr-sse2-no-bsf.os)
 .debug_aranges
                0x0000000000000d30       0x30 /home/yaohui.c/work/afl-pt/afl-2.42b/pt_mode/glibc-2.19/pt-build/libc_pic.a(memcmp-ssse3.os)
 .debug_aranges
                0x0000000000000d60       0x40 /home/yaohui.c/work/afl-pt/afl-2.42b/pt_mode/glibc-2.19/pt-build/libc_pic.a(cacheinfo.os)
 .debug_aranges
                0x0000000000000da0       0x30 /home/yaohui.c/work/afl-pt/afl-2.42b/pt_mode/glibc-2.19/pt-build/libc_pic.a(closedir.os)
 .debug_aranges
                0x0000000000000dd0       0x30 /home/yaohui.c/work/afl-pt/afl-2.42b/pt_mode/glibc-2.19/pt-build/libc_pic.a(readdir.os)
 .debug_aranges
                0x0000000000000e00       0x30 /home/yaohui.c/work/afl-pt/afl-2.42b/pt_mode/glibc-2.19/pt-build/libc_pic.a(rewinddir.os)
 .debug_aranges
                0x0000000000000e30       0x30 /home/yaohui.c/work/afl-pt/afl-2.42b/pt_mode/glibc-2.19/pt-build/libc_pic.a(getdents.os)
 .debug_aranges
                0x0000000000000e60       0x30 /home/yaohui.c/work/afl-pt/afl-2.42b/pt_mode/glibc-2.19/pt-build/libc_pic.a(fdopendir.os)
 .debug_aranges
                0x0000000000000e90       0x30 /home/yaohui.c/work/afl-pt/afl-2.42b/pt_mode/glibc-2.19/pt-build/libc_pic.a(uname.os)
 .debug_aranges
                0x0000000000000ec0       0x30 /home/yaohui.c/work/afl-pt/afl-2.42b/pt_mode/glibc-2.19/pt-build/libc_pic.a(waitpid.os)
 .debug_aranges
                0x0000000000000ef0       0x30 /home/yaohui.c/work/afl-pt/afl-2.42b/pt_mode/glibc-2.19/pt-build/libc_pic.a(_exit.os)
 .debug_aranges
                0x0000000000000f20       0x30 /home/yaohui.c/work/afl-pt/afl-2.42b/pt_mode/glibc-2.19/pt-build/libc_pic.a(getpid.os)
 .debug_aranges
                0x0000000000000f50       0x20 /home/yaohui.c/work/afl-pt/afl-2.42b/pt_mode/glibc-2.19/pt-build/libc_pic.a(environ.os)
 .debug_aranges
                0x0000000000000f70       0x30 /home/yaohui.c/work/afl-pt/afl-2.42b/pt_mode/glibc-2.19/pt-build/libc_pic.a(xstat.os)
 .debug_aranges
                0x0000000000000fa0       0x30 /home/yaohui.c/work/afl-pt/afl-2.42b/pt_mode/glibc-2.19/pt-build/libc_pic.a(fxstat.os)
 .debug_aranges
                0x0000000000000fd0       0x30 /home/yaohui.c/work/afl-pt/afl-2.42b/pt_mode/glibc-2.19/pt-build/libc_pic.a(lxstat.os)
 .debug_aranges
                0x0000000000001000       0x30 /home/yaohui.c/work/afl-pt/afl-2.42b/pt_mode/glibc-2.19/pt-build/libc_pic.a(open.os)
 .debug_aranges
                0x0000000000001030       0x30 /home/yaohui.c/work/afl-pt/afl-2.42b/pt_mode/glibc-2.19/pt-build/libc_pic.a(read.os)
 .debug_aranges
                0x0000000000001060       0x30 /home/yaohui.c/work/afl-pt/afl-2.42b/pt_mode/glibc-2.19/pt-build/libc_pic.a(write.os)
 .debug_aranges
                0x0000000000001090       0x30 /home/yaohui.c/work/afl-pt/afl-2.42b/pt_mode/glibc-2.19/pt-build/libc_pic.a(access.os)
 .debug_aranges
                0x00000000000010c0       0x30 /home/yaohui.c/work/afl-pt/afl-2.42b/pt_mode/glibc-2.19/pt-build/libc_pic.a(fcntl.os)
 .debug_aranges
                0x00000000000010f0       0x30 /home/yaohui.c/work/afl-pt/afl-2.42b/pt_mode/glibc-2.19/pt-build/libc_pic.a(close.os)
 .debug_aranges
                0x0000000000001120       0x30 /home/yaohui.c/work/afl-pt/afl-2.42b/pt_mode/glibc-2.19/pt-build/libc_pic.a(mmap.os)
 .debug_aranges
                0x0000000000001150       0x30 /home/yaohui.c/work/afl-pt/afl-2.42b/pt_mode/glibc-2.19/pt-build/libc_pic.a(munmap.os)
 .debug_aranges
                0x0000000000001180       0x30 /home/yaohui.c/work/afl-pt/afl-2.42b/pt_mode/glibc-2.19/pt-build/libc_pic.a(mprotect.os)
 .debug_aranges
                0x00000000000011b0       0x30 /home/yaohui.c/work/afl-pt/afl-2.42b/pt_mode/glibc-2.19/pt-build/libc_pic.a(llseek.os)
 .debug_aranges
                0x00000000000011e0       0x30 /home/yaohui.c/work/afl-pt/afl-2.42b/pt_mode/glibc-2.19/pt-build/libc_pic.a(profil.os)
 .debug_aranges
                0x0000000000001210       0x30 /home/yaohui.c/work/afl-pt/afl-2.42b/pt_mode/glibc-2.19/pt-build/libc_pic.a(prof-freq.os)
 .debug_aranges
                0x0000000000001240       0x30 /home/yaohui.c/work/afl-pt/afl-2.42b/pt_mode/glibc-2.19/pt-build/libc_pic.a(libc-lowlevellock.os)
 .debug_aranges
                0x0000000000001270       0x30 /home/yaohui.c/work/afl-pt/afl-2.42b/pt_mode/glibc-2.19/pt-build/libc_pic.a(libc-cancellation.os)
 .debug_aranges
                0x00000000000012a0       0x20 /home/yaohui.c/work/afl-pt/afl-2.42b/pt_mode/glibc-2.19/pt-build/libc_pic.a(libc_multiple_threads.os)
 .debug_aranges
                0x00000000000012c0       0x30 /home/yaohui.c/work/afl-pt/afl-2.42b/pt_mode/glibc-2.19/pt-build/libc_pic.a(init-arch.os)
 .debug_aranges
                0x00000000000012f0       0x30 /home/yaohui.c/work/afl-pt/afl-2.42b/pt_mode/glibc-2.19/pt-build/libc_pic.a(sigaction.os)
 .debug_aranges
                0x0000000000001320       0x30 /home/yaohui.c/work/afl-pt/afl-2.42b/pt_mode/glibc-2.19/pt-build/libc_pic.a(setitimer.os)
 .debug_aranges
                0x0000000000001350       0xa0 /home/yaohui.c/work/afl-pt/afl-2.42b/pt_mode/glibc-2.19/pt-build/libc_pic.a(forward.os)
 .debug_aranges
                0x00000000000013f0       0x30 /home/yaohui.c/work/afl-pt/afl-2.42b/pt_mode/glibc-2.19/pt-build/libc_pic.a(exit.os)
 .debug_aranges
                0x0000000000001420       0x30 /home/yaohui.c/work/afl-pt/afl-2.42b/pt_mode/glibc-2.19/pt-build/libc_pic.a(cxa_atexit.os)
 .debug_aranges
                0x0000000000001450       0x30 /home/yaohui.c/work/afl-pt/afl-2.42b/pt_mode/glibc-2.19/pt-build/libc_pic.a(cxa_thread_atexit_impl.os)

.debug_pubnames
 *(.debug_pubnames)

.debug_info     0x0000000000000000    0x576d2
 *(.debug_info)
 .debug_info    0x0000000000000000    0x488a5 /home/yaohui.c/work/afl-pt/afl-2.42b/pt_mode/glibc-2.19/pt-build/elf/dl-allobjs.os
 .debug_info    0x00000000000488a5      0x5ba /home/yaohui.c/work/afl-pt/afl-2.42b/pt_mode/glibc-2.19/pt-build/libc_pic.a(check_fds.os)
 .debug_info    0x0000000000048e5f      0x207 /home/yaohui.c/work/afl-pt/afl-2.42b/pt_mode/glibc-2.19/pt-build/libc_pic.a(errno.os)
 .debug_info    0x0000000000049066       0x88 /home/yaohui.c/work/afl-pt/afl-2.42b/pt_mode/glibc-2.19/pt-build/libc_pic.a(setjmp.os)
 .debug_info    0x00000000000490ee       0x8b /home/yaohui.c/work/afl-pt/afl-2.42b/pt_mode/glibc-2.19/pt-build/libc_pic.a(__longjmp.os)
 .debug_info    0x0000000000049179       0x92 /home/yaohui.c/work/afl-pt/afl-2.42b/pt_mode/glibc-2.19/pt-build/libc_pic.a(strchr.os)
 .debug_info    0x000000000004920b       0x86 /home/yaohui.c/work/afl-pt/afl-2.42b/pt_mode/glibc-2.19/pt-build/libc_pic.a(strcmp.os)
 .debug_info    0x0000000000049291       0x92 /home/yaohui.c/work/afl-pt/afl-2.42b/pt_mode/glibc-2.19/pt-build/libc_pic.a(strcpy.os)
 .debug_info    0x0000000000049323       0x88 /home/yaohui.c/work/afl-pt/afl-2.42b/pt_mode/glibc-2.19/pt-build/libc_pic.a(strlen.os)
 .debug_info    0x00000000000493ab       0x88 /home/yaohui.c/work/afl-pt/afl-2.42b/pt_mode/glibc-2.19/pt-build/libc_pic.a(strnlen.os)
 .debug_info    0x0000000000049433       0x88 /home/yaohui.c/work/afl-pt/afl-2.42b/pt_mode/glibc-2.19/pt-build/libc_pic.a(memchr.os)
 .debug_info    0x00000000000494bb       0x92 /home/yaohui.c/work/afl-pt/afl-2.42b/pt_mode/glibc-2.19/pt-build/libc_pic.a(memcmp.os)
 .debug_info    0x000000000004954d      0x46b /home/yaohui.c/work/afl-pt/afl-2.42b/pt_mode/glibc-2.19/pt-build/libc_pic.a(memmove.os)
 .debug_info    0x00000000000499b8       0x88 /home/yaohui.c/work/afl-pt/afl-2.42b/pt_mode/glibc-2.19/pt-build/libc_pic.a(memset.os)
 .debug_info    0x0000000000049a40       0x93 /home/yaohui.c/work/afl-pt/afl-2.42b/pt_mode/glibc-2.19/pt-build/libc_pic.a(mempcpy.os)
 .debug_info    0x0000000000049ad3       0x92 /home/yaohui.c/work/afl-pt/afl-2.42b/pt_mode/glibc-2.19/pt-build/libc_pic.a(stpcpy.os)
 .debug_info    0x0000000000049b65       0x92 /home/yaohui.c/work/afl-pt/afl-2.42b/pt_mode/glibc-2.19/pt-build/libc_pic.a(memcpy.os)
 .debug_info    0x0000000000049bf7      0x443 /home/yaohui.c/work/afl-pt/afl-2.42b/pt_mode/glibc-2.19/pt-build/libc_pic.a(wordcopy.os)
 .debug_info    0x000000000004a03a       0x8b /home/yaohui.c/work/afl-pt/afl-2.42b/pt_mode/glibc-2.19/pt-build/libc_pic.a(rawmemchr.os)
 .debug_info    0x000000000004a0c5       0x95 /home/yaohui.c/work/afl-pt/afl-2.42b/pt_mode/glibc-2.19/pt-build/libc_pic.a(strcmp-ssse3.os)
 .debug_info    0x000000000004a15a       0xa1 /home/yaohui.c/work/afl-pt/afl-2.42b/pt_mode/glibc-2.19/pt-build/libc_pic.a(strcmp-sse2-unaligned.os)
 .debug_info    0x000000000004a1fb       0x97 /home/yaohui.c/work/afl-pt/afl-2.42b/pt_mode/glibc-2.19/pt-build/libc_pic.a(memcmp-sse4.os)
 .debug_info    0x000000000004a292       0x98 /home/yaohui.c/work/afl-pt/afl-2.42b/pt_mode/glibc-2.19/pt-build/libc_pic.a(memcpy-ssse3.os)
 .debug_info    0x000000000004a32a       0xa1 /home/yaohui.c/work/afl-pt/afl-2.42b/pt_mode/glibc-2.19/pt-build/libc_pic.a(memcpy-sse2-unaligned.os)
 .debug_info    0x000000000004a3cb       0x98 /home/yaohui.c/work/afl-pt/afl-2.42b/pt_mode/glibc-2.19/pt-build/libc_pic.a(mempcpy-ssse3.os)
 .debug_info    0x000000000004a463       0x98 /home/yaohui.c/work/afl-pt/afl-2.42b/pt_mode/glibc-2.19/pt-build/libc_pic.a(memmove-ssse3.os)
 .debug_info    0x000000000004a4fb       0x9d /home/yaohui.c/work/afl-pt/afl-2.42b/pt_mode/glibc-2.19/pt-build/libc_pic.a(mempcpy-ssse3-back.os)
 .debug_info    0x000000000004a598       0x9d /home/yaohui.c/work/afl-pt/afl-2.42b/pt_mode/glibc-2.19/pt-build/libc_pic.a(memmove-ssse3-back.os)
 .debug_info    0x000000000004a635       0x98 /home/yaohui.c/work/afl-pt/afl-2.42b/pt_mode/glibc-2.19/pt-build/libc_pic.a(strcpy-ssse3.os)
 .debug_info    0x000000000004a6cd       0x98 /home/yaohui.c/work/afl-pt/afl-2.42b/pt_mode/glibc-2.19/pt-build/libc_pic.a(stpcpy-ssse3.os)
 .debug_info    0x000000000004a765       0xa1 /home/yaohui.c/work/afl-pt/afl-2.42b/pt_mode/glibc-2.19/pt-build/libc_pic.a(strcpy-sse2-unaligned.os)
 .debug_info    0x000000000004a806       0xa1 /home/yaohui.c/work/afl-pt/afl-2.42b/pt_mode/glibc-2.19/pt-build/libc_pic.a(stpcpy-sse2-unaligned.os)
 .debug_info    0x000000000004a8a7       0x9e /home/yaohui.c/work/afl-pt/afl-2.42b/pt_mode/glibc-2.19/pt-build/libc_pic.a(strchr-sse2-no-bsf.os)
 .debug_info    0x000000000004a945       0x98 /home/yaohui.c/work/afl-pt/afl-2.42b/pt_mode/glibc-2.19/pt-build/libc_pic.a(memcmp-ssse3.os)
 .debug_info    0x000000000004a9dd     0x1147 /home/yaohui.c/work/afl-pt/afl-2.42b/pt_mode/glibc-2.19/pt-build/libc_pic.a(cacheinfo.os)
 .debug_info    0x000000000004bb24      0x2e9 /home/yaohui.c/work/afl-pt/afl-2.42b/pt_mode/glibc-2.19/pt-build/libc_pic.a(closedir.os)
 .debug_info    0x000000000004be0d      0x437 /home/yaohui.c/work/afl-pt/afl-2.42b/pt_mode/glibc-2.19/pt-build/libc_pic.a(readdir.os)
 .debug_info    0x000000000004c244      0x357 /home/yaohui.c/work/afl-pt/afl-2.42b/pt_mode/glibc-2.19/pt-build/libc_pic.a(rewinddir.os)
 .debug_info    0x000000000004c59b      0x4ca /home/yaohui.c/work/afl-pt/afl-2.42b/pt_mode/glibc-2.19/pt-build/libc_pic.a(getdents.os)
 .debug_info    0x000000000004ca65      0x536 /home/yaohui.c/work/afl-pt/afl-2.42b/pt_mode/glibc-2.19/pt-build/libc_pic.a(fdopendir.os)
 .debug_info    0x000000000004cf9b       0x8f /home/yaohui.c/work/afl-pt/afl-2.42b/pt_mode/glibc-2.19/pt-build/libc_pic.a(uname.os)
 .debug_info    0x000000000004d02a      0x44a /home/yaohui.c/work/afl-pt/afl-2.42b/pt_mode/glibc-2.19/pt-build/libc_pic.a(waitpid.os)
 .debug_info    0x000000000004d474      0x2c1 /home/yaohui.c/work/afl-pt/afl-2.42b/pt_mode/glibc-2.19/pt-build/libc_pic.a(_exit.os)
 .debug_info    0x000000000004d735      0x31a /home/yaohui.c/work/afl-pt/afl-2.42b/pt_mode/glibc-2.19/pt-build/libc_pic.a(getpid.os)
 .debug_info    0x000000000004da4f       0xaf /home/yaohui.c/work/afl-pt/afl-2.42b/pt_mode/glibc-2.19/pt-build/libc_pic.a(environ.os)
 .debug_info    0x000000000004dafe      0x42c /home/yaohui.c/work/afl-pt/afl-2.42b/pt_mode/glibc-2.19/pt-build/libc_pic.a(xstat.os)
 .debug_info    0x000000000004df2a      0x42b /home/yaohui.c/work/afl-pt/afl-2.42b/pt_mode/glibc-2.19/pt-build/libc_pic.a(fxstat.os)
 .debug_info    0x000000000004e355      0x42c /home/yaohui.c/work/afl-pt/afl-2.42b/pt_mode/glibc-2.19/pt-build/libc_pic.a(lxstat.os)
 .debug_info    0x000000000004e781       0x8c /home/yaohui.c/work/afl-pt/afl-2.42b/pt_mode/glibc-2.19/pt-build/libc_pic.a(open.os)
 .debug_info    0x000000000004e80d       0x8c /home/yaohui.c/work/afl-pt/afl-2.42b/pt_mode/glibc-2.19/pt-build/libc_pic.a(read.os)
 .debug_info    0x000000000004e899       0x8c /home/yaohui.c/work/afl-pt/afl-2.42b/pt_mode/glibc-2.19/pt-build/libc_pic.a(write.os)
 .debug_info    0x000000000004e925       0x8c /home/yaohui.c/work/afl-pt/afl-2.42b/pt_mode/glibc-2.19/pt-build/libc_pic.a(access.os)
 .debug_info    0x000000000004e9b1      0x809 /home/yaohui.c/work/afl-pt/afl-2.42b/pt_mode/glibc-2.19/pt-build/libc_pic.a(fcntl.os)
 .debug_info    0x000000000004f1ba       0x8c /home/yaohui.c/work/afl-pt/afl-2.42b/pt_mode/glibc-2.19/pt-build/libc_pic.a(close.os)
 .debug_info    0x000000000004f246       0x8e /home/yaohui.c/work/afl-pt/afl-2.42b/pt_mode/glibc-2.19/pt-build/libc_pic.a(mmap.os)
 .debug_info    0x000000000004f2d4       0x8e /home/yaohui.c/work/afl-pt/afl-2.42b/pt_mode/glibc-2.19/pt-build/libc_pic.a(munmap.os)
 .debug_info    0x000000000004f362       0x8e /home/yaohui.c/work/afl-pt/afl-2.42b/pt_mode/glibc-2.19/pt-build/libc_pic.a(mprotect.os)
 .debug_info    0x000000000004f3f0       0x8e /home/yaohui.c/work/afl-pt/afl-2.42b/pt_mode/glibc-2.19/pt-build/libc_pic.a(llseek.os)
 .debug_info    0x000000000004f47e      0xc28 /home/yaohui.c/work/afl-pt/afl-2.42b/pt_mode/glibc-2.19/pt-build/libc_pic.a(profil.os)
 .debug_info    0x00000000000500a6     0x156d /home/yaohui.c/work/afl-pt/afl-2.42b/pt_mode/glibc-2.19/pt-build/libc_pic.a(prof-freq.os)
 .debug_info    0x0000000000051613       0xa1 /home/yaohui.c/work/afl-pt/afl-2.42b/pt_mode/glibc-2.19/pt-build/libc_pic.a(libc-lowlevellock.os)
 .debug_info    0x00000000000516b4       0xa1 /home/yaohui.c/work/afl-pt/afl-2.42b/pt_mode/glibc-2.19/pt-build/libc_pic.a(libc-cancellation.os)
 .debug_info    0x0000000000051755      0x2ee /home/yaohui.c/work/afl-pt/afl-2.42b/pt_mode/glibc-2.19/pt-build/libc_pic.a(libc_multiple_threads.os)
 .debug_info    0x0000000000051a43      0x4e5 /home/yaohui.c/work/afl-pt/afl-2.42b/pt_mode/glibc-2.19/pt-build/libc_pic.a(init-arch.os)
 .debug_info    0x0000000000051f28      0x7a3 /home/yaohui.c/work/afl-pt/afl-2.42b/pt_mode/glibc-2.19/pt-build/libc_pic.a(sigaction.os)
 .debug_info    0x00000000000526cb       0x8e /home/yaohui.c/work/afl-pt/afl-2.42b/pt_mode/glibc-2.19/pt-build/libc_pic.a(setitimer.os)
 .debug_info    0x0000000000052759     0x279a /home/yaohui.c/work/afl-pt/afl-2.42b/pt_mode/glibc-2.19/pt-build/libc_pic.a(forward.os)
 .debug_info    0x0000000000054ef3      0xdff /home/yaohui.c/work/afl-pt/afl-2.42b/pt_mode/glibc-2.19/pt-build/libc_pic.a(exit.os)
 .debug_info    0x0000000000055cf2      0x681 /home/yaohui.c/work/afl-pt/afl-2.42b/pt_mode/glibc-2.19/pt-build/libc_pic.a(cxa_atexit.os)
 .debug_info    0x0000000000056373     0x135f /home/yaohui.c/work/afl-pt/afl-2.42b/pt_mode/glibc-2.19/pt-build/libc_pic.a(cxa_thread_atexit_impl.os)

.debug_abbrev   0x0000000000000000     0xb3a6
 *(.debug_abbrev)
 .debug_abbrev  0x0000000000000000     0x8056 /home/yaohui.c/work/afl-pt/afl-2.42b/pt_mode/glibc-2.19/pt-build/elf/dl-allobjs.os
 .debug_abbrev  0x0000000000008056      0x212 /home/yaohui.c/work/afl-pt/afl-2.42b/pt_mode/glibc-2.19/pt-build/libc_pic.a(check_fds.os)
 .debug_abbrev  0x0000000000008268       0xcc /home/yaohui.c/work/afl-pt/afl-2.42b/pt_mode/glibc-2.19/pt-build/libc_pic.a(errno.os)
 .debug_abbrev  0x0000000000008334       0x14 /home/yaohui.c/work/afl-pt/afl-2.42b/pt_mode/glibc-2.19/pt-build/libc_pic.a(setjmp.os)
 .debug_abbrev  0x0000000000008348       0x14 /home/yaohui.c/work/afl-pt/afl-2.42b/pt_mode/glibc-2.19/pt-build/libc_pic.a(__longjmp.os)
 .debug_abbrev  0x000000000000835c       0x14 /home/yaohui.c/work/afl-pt/afl-2.42b/pt_mode/glibc-2.19/pt-build/libc_pic.a(strchr.os)
 .debug_abbrev  0x0000000000008370       0x12 /home/yaohui.c/work/afl-pt/afl-2.42b/pt_mode/glibc-2.19/pt-build/libc_pic.a(strcmp.os)
 .debug_abbrev  0x0000000000008382       0x14 /home/yaohui.c/work/afl-pt/afl-2.42b/pt_mode/glibc-2.19/pt-build/libc_pic.a(strcpy.os)
 .debug_abbrev  0x0000000000008396       0x14 /home/yaohui.c/work/afl-pt/afl-2.42b/pt_mode/glibc-2.19/pt-build/libc_pic.a(strlen.os)
 .debug_abbrev  0x00000000000083aa       0x14 /home/yaohui.c/work/afl-pt/afl-2.42b/pt_mode/glibc-2.19/pt-build/libc_pic.a(strnlen.os)
 .debug_abbrev  0x00000000000083be       0x14 /home/yaohui.c/work/afl-pt/afl-2.42b/pt_mode/glibc-2.19/pt-build/libc_pic.a(memchr.os)
 .debug_abbrev  0x00000000000083d2       0x14 /home/yaohui.c/work/afl-pt/afl-2.42b/pt_mode/glibc-2.19/pt-build/libc_pic.a(memcmp.os)
 .debug_abbrev  0x00000000000083e6      0x1cf /home/yaohui.c/work/afl-pt/afl-2.42b/pt_mode/glibc-2.19/pt-build/libc_pic.a(memmove.os)
 .debug_abbrev  0x00000000000085b5       0x14 /home/yaohui.c/work/afl-pt/afl-2.42b/pt_mode/glibc-2.19/pt-build/libc_pic.a(memset.os)
 .debug_abbrev  0x00000000000085c9       0x14 /home/yaohui.c/work/afl-pt/afl-2.42b/pt_mode/glibc-2.19/pt-build/libc_pic.a(mempcpy.os)
 .debug_abbrev  0x00000000000085dd       0x14 /home/yaohui.c/work/afl-pt/afl-2.42b/pt_mode/glibc-2.19/pt-build/libc_pic.a(stpcpy.os)
 .debug_abbrev  0x00000000000085f1       0x14 /home/yaohui.c/work/afl-pt/afl-2.42b/pt_mode/glibc-2.19/pt-build/libc_pic.a(memcpy.os)
 .debug_abbrev  0x0000000000008605      0x119 /home/yaohui.c/work/afl-pt/afl-2.42b/pt_mode/glibc-2.19/pt-build/libc_pic.a(wordcopy.os)
 .debug_abbrev  0x000000000000871e       0x14 /home/yaohui.c/work/afl-pt/afl-2.42b/pt_mode/glibc-2.19/pt-build/libc_pic.a(rawmemchr.os)
 .debug_abbrev  0x0000000000008732       0x14 /home/yaohui.c/work/afl-pt/afl-2.42b/pt_mode/glibc-2.19/pt-build/libc_pic.a(strcmp-ssse3.os)
 .debug_abbrev  0x0000000000008746       0x14 /home/yaohui.c/work/afl-pt/afl-2.42b/pt_mode/glibc-2.19/pt-build/libc_pic.a(strcmp-sse2-unaligned.os)
 .debug_abbrev  0x000000000000875a       0x14 /home/yaohui.c/work/afl-pt/afl-2.42b/pt_mode/glibc-2.19/pt-build/libc_pic.a(memcmp-sse4.os)
 .debug_abbrev  0x000000000000876e       0x14 /home/yaohui.c/work/afl-pt/afl-2.42b/pt_mode/glibc-2.19/pt-build/libc_pic.a(memcpy-ssse3.os)
 .debug_abbrev  0x0000000000008782       0x14 /home/yaohui.c/work/afl-pt/afl-2.42b/pt_mode/glibc-2.19/pt-build/libc_pic.a(memcpy-sse2-unaligned.os)
 .debug_abbrev  0x0000000000008796       0x14 /home/yaohui.c/work/afl-pt/afl-2.42b/pt_mode/glibc-2.19/pt-build/libc_pic.a(mempcpy-ssse3.os)
 .debug_abbrev  0x00000000000087aa       0x14 /home/yaohui.c/work/afl-pt/afl-2.42b/pt_mode/glibc-2.19/pt-build/libc_pic.a(memmove-ssse3.os)
 .debug_abbrev  0x00000000000087be       0x14 /home/yaohui.c/work/afl-pt/afl-2.42b/pt_mode/glibc-2.19/pt-build/libc_pic.a(mempcpy-ssse3-back.os)
 .debug_abbrev  0x00000000000087d2       0x14 /home/yaohui.c/work/afl-pt/afl-2.42b/pt_mode/glibc-2.19/pt-build/libc_pic.a(memmove-ssse3-back.os)
 .debug_abbrev  0x00000000000087e6       0x14 /home/yaohui.c/work/afl-pt/afl-2.42b/pt_mode/glibc-2.19/pt-build/libc_pic.a(strcpy-ssse3.os)
 .debug_abbrev  0x00000000000087fa       0x14 /home/yaohui.c/work/afl-pt/afl-2.42b/pt_mode/glibc-2.19/pt-build/libc_pic.a(stpcpy-ssse3.os)
 .debug_abbrev  0x000000000000880e       0x14 /home/yaohui.c/work/afl-pt/afl-2.42b/pt_mode/glibc-2.19/pt-build/libc_pic.a(strcpy-sse2-unaligned.os)
 .debug_abbrev  0x0000000000008822       0x14 /home/yaohui.c/work/afl-pt/afl-2.42b/pt_mode/glibc-2.19/pt-build/libc_pic.a(stpcpy-sse2-unaligned.os)
 .debug_abbrev  0x0000000000008836       0x14 /home/yaohui.c/work/afl-pt/afl-2.42b/pt_mode/glibc-2.19/pt-build/libc_pic.a(strchr-sse2-no-bsf.os)
 .debug_abbrev  0x000000000000884a       0x14 /home/yaohui.c/work/afl-pt/afl-2.42b/pt_mode/glibc-2.19/pt-build/libc_pic.a(memcmp-ssse3.os)
 .debug_abbrev  0x000000000000885e      0x33a /home/yaohui.c/work/afl-pt/afl-2.42b/pt_mode/glibc-2.19/pt-build/libc_pic.a(cacheinfo.os)
 .debug_abbrev  0x0000000000008b98      0x114 /home/yaohui.c/work/afl-pt/afl-2.42b/pt_mode/glibc-2.19/pt-build/libc_pic.a(closedir.os)
 .debug_abbrev  0x0000000000008cac      0x18c /home/yaohui.c/work/afl-pt/afl-2.42b/pt_mode/glibc-2.19/pt-build/libc_pic.a(readdir.os)
 .debug_abbrev  0x0000000000008e38      0x14b /home/yaohui.c/work/afl-pt/afl-2.42b/pt_mode/glibc-2.19/pt-build/libc_pic.a(rewinddir.os)
 .debug_abbrev  0x0000000000008f83      0x1e5 /home/yaohui.c/work/afl-pt/afl-2.42b/pt_mode/glibc-2.19/pt-build/libc_pic.a(getdents.os)
 .debug_abbrev  0x0000000000009168      0x182 /home/yaohui.c/work/afl-pt/afl-2.42b/pt_mode/glibc-2.19/pt-build/libc_pic.a(fdopendir.os)
 .debug_abbrev  0x00000000000092ea       0x14 /home/yaohui.c/work/afl-pt/afl-2.42b/pt_mode/glibc-2.19/pt-build/libc_pic.a(uname.os)
 .debug_abbrev  0x00000000000092fe      0x17f /home/yaohui.c/work/afl-pt/afl-2.42b/pt_mode/glibc-2.19/pt-build/libc_pic.a(waitpid.os)
 .debug_abbrev  0x000000000000947d      0x141 /home/yaohui.c/work/afl-pt/afl-2.42b/pt_mode/glibc-2.19/pt-build/libc_pic.a(_exit.os)
 .debug_abbrev  0x00000000000095be      0x17e /home/yaohui.c/work/afl-pt/afl-2.42b/pt_mode/glibc-2.19/pt-build/libc_pic.a(getpid.os)
 .debug_abbrev  0x000000000000973c       0x40 /home/yaohui.c/work/afl-pt/afl-2.42b/pt_mode/glibc-2.19/pt-build/libc_pic.a(environ.os)
 .debug_abbrev  0x000000000000977c      0x13a /home/yaohui.c/work/afl-pt/afl-2.42b/pt_mode/glibc-2.19/pt-build/libc_pic.a(xstat.os)
 .debug_abbrev  0x00000000000098b6      0x13a /home/yaohui.c/work/afl-pt/afl-2.42b/pt_mode/glibc-2.19/pt-build/libc_pic.a(fxstat.os)
 .debug_abbrev  0x00000000000099f0      0x13a /home/yaohui.c/work/afl-pt/afl-2.42b/pt_mode/glibc-2.19/pt-build/libc_pic.a(lxstat.os)
 .debug_abbrev  0x0000000000009b2a       0x14 /home/yaohui.c/work/afl-pt/afl-2.42b/pt_mode/glibc-2.19/pt-build/libc_pic.a(open.os)
 .debug_abbrev  0x0000000000009b3e       0x14 /home/yaohui.c/work/afl-pt/afl-2.42b/pt_mode/glibc-2.19/pt-build/libc_pic.a(read.os)
 .debug_abbrev  0x0000000000009b52       0x14 /home/yaohui.c/work/afl-pt/afl-2.42b/pt_mode/glibc-2.19/pt-build/libc_pic.a(write.os)
 .debug_abbrev  0x0000000000009b66       0x14 /home/yaohui.c/work/afl-pt/afl-2.42b/pt_mode/glibc-2.19/pt-build/libc_pic.a(access.os)
 .debug_abbrev  0x0000000000009b7a      0x2a1 /home/yaohui.c/work/afl-pt/afl-2.42b/pt_mode/glibc-2.19/pt-build/libc_pic.a(fcntl.os)
 .debug_abbrev  0x0000000000009e1b       0x14 /home/yaohui.c/work/afl-pt/afl-2.42b/pt_mode/glibc-2.19/pt-build/libc_pic.a(close.os)
 .debug_abbrev  0x0000000000009e2f       0x14 /home/yaohui.c/work/afl-pt/afl-2.42b/pt_mode/glibc-2.19/pt-build/libc_pic.a(mmap.os)
 .debug_abbrev  0x0000000000009e43       0x14 /home/yaohui.c/work/afl-pt/afl-2.42b/pt_mode/glibc-2.19/pt-build/libc_pic.a(munmap.os)
 .debug_abbrev  0x0000000000009e57       0x14 /home/yaohui.c/work/afl-pt/afl-2.42b/pt_mode/glibc-2.19/pt-build/libc_pic.a(mprotect.os)
 .debug_abbrev  0x0000000000009e6b       0x14 /home/yaohui.c/work/afl-pt/afl-2.42b/pt_mode/glibc-2.19/pt-build/libc_pic.a(llseek.os)
 .debug_abbrev  0x0000000000009e7f      0x2c3 /home/yaohui.c/work/afl-pt/afl-2.42b/pt_mode/glibc-2.19/pt-build/libc_pic.a(profil.os)
 .debug_abbrev  0x000000000000a142      0x237 /home/yaohui.c/work/afl-pt/afl-2.42b/pt_mode/glibc-2.19/pt-build/libc_pic.a(prof-freq.os)
 .debug_abbrev  0x000000000000a379       0x14 /home/yaohui.c/work/afl-pt/afl-2.42b/pt_mode/glibc-2.19/pt-build/libc_pic.a(libc-lowlevellock.os)
 .debug_abbrev  0x000000000000a38d       0x14 /home/yaohui.c/work/afl-pt/afl-2.42b/pt_mode/glibc-2.19/pt-build/libc_pic.a(libc-cancellation.os)
 .debug_abbrev  0x000000000000a3a1      0x113 /home/yaohui.c/work/afl-pt/afl-2.42b/pt_mode/glibc-2.19/pt-build/libc_pic.a(libc_multiple_threads.os)
 .debug_abbrev  0x000000000000a4b4      0x1f0 /home/yaohui.c/work/afl-pt/afl-2.42b/pt_mode/glibc-2.19/pt-build/libc_pic.a(init-arch.os)
 .debug_abbrev  0x000000000000a6a4      0x1e6 /home/yaohui.c/work/afl-pt/afl-2.42b/pt_mode/glibc-2.19/pt-build/libc_pic.a(sigaction.os)
 .debug_abbrev  0x000000000000a88a       0x14 /home/yaohui.c/work/afl-pt/afl-2.42b/pt_mode/glibc-2.19/pt-build/libc_pic.a(setitimer.os)
 .debug_abbrev  0x000000000000a89e      0x32c /home/yaohui.c/work/afl-pt/afl-2.42b/pt_mode/glibc-2.19/pt-build/libc_pic.a(forward.os)
 .debug_abbrev  0x000000000000abca      0x28b /home/yaohui.c/work/afl-pt/afl-2.42b/pt_mode/glibc-2.19/pt-build/libc_pic.a(exit.os)
 .debug_abbrev  0x000000000000ae55      0x27e /home/yaohui.c/work/afl-pt/afl-2.42b/pt_mode/glibc-2.19/pt-build/libc_pic.a(cxa_atexit.os)
 .debug_abbrev  0x000000000000b0d3      0x2d3 /home/yaohui.c/work/afl-pt/afl-2.42b/pt_mode/glibc-2.19/pt-build/libc_pic.a(cxa_thread_atexit_impl.os)

.debug_line     0x0000000000000000    0x1389e
 *(.debug_line .debug_line.* .debug_line_end)
 .debug_line    0x0000000000000000     0x9d65 /home/yaohui.c/work/afl-pt/afl-2.42b/pt_mode/glibc-2.19/pt-build/elf/dl-allobjs.os
 .debug_line    0x0000000000009d65      0x1f4 /home/yaohui.c/work/afl-pt/afl-2.42b/pt_mode/glibc-2.19/pt-build/libc_pic.a(check_fds.os)
 .debug_line    0x0000000000009f59       0xa8 /home/yaohui.c/work/afl-pt/afl-2.42b/pt_mode/glibc-2.19/pt-build/libc_pic.a(errno.os)
 .debug_line    0x000000000000a001       0x60 /home/yaohui.c/work/afl-pt/afl-2.42b/pt_mode/glibc-2.19/pt-build/libc_pic.a(setjmp.os)
 .debug_line    0x000000000000a061       0x61 /home/yaohui.c/work/afl-pt/afl-2.42b/pt_mode/glibc-2.19/pt-build/libc_pic.a(__longjmp.os)
 .debug_line    0x000000000000a0c2      0x112 /home/yaohui.c/work/afl-pt/afl-2.42b/pt_mode/glibc-2.19/pt-build/libc_pic.a(strchr.os)
 .debug_line    0x000000000000a1d4      0x7b9 /home/yaohui.c/work/afl-pt/afl-2.42b/pt_mode/glibc-2.19/pt-build/libc_pic.a(strcmp.os)
 .debug_line    0x000000000000a98d       0xd9 /home/yaohui.c/work/afl-pt/afl-2.42b/pt_mode/glibc-2.19/pt-build/libc_pic.a(strcpy.os)
 .debug_line    0x000000000000aa66       0x97 /home/yaohui.c/work/afl-pt/afl-2.42b/pt_mode/glibc-2.19/pt-build/libc_pic.a(strlen.os)
 .debug_line    0x000000000000aafd       0x98 /home/yaohui.c/work/afl-pt/afl-2.42b/pt_mode/glibc-2.19/pt-build/libc_pic.a(strnlen.os)
 .debug_line    0x000000000000ab95      0x117 /home/yaohui.c/work/afl-pt/afl-2.42b/pt_mode/glibc-2.19/pt-build/libc_pic.a(memchr.os)
 .debug_line    0x000000000000acac      0x192 /home/yaohui.c/work/afl-pt/afl-2.42b/pt_mode/glibc-2.19/pt-build/libc_pic.a(memcmp.os)
 .debug_line    0x000000000000ae3e      0x18b /home/yaohui.c/work/afl-pt/afl-2.42b/pt_mode/glibc-2.19/pt-build/libc_pic.a(memmove.os)
 .debug_line    0x000000000000afc9       0x94 /home/yaohui.c/work/afl-pt/afl-2.42b/pt_mode/glibc-2.19/pt-build/libc_pic.a(memset.os)
 .debug_line    0x000000000000b05d      0x19b /home/yaohui.c/work/afl-pt/afl-2.42b/pt_mode/glibc-2.19/pt-build/libc_pic.a(mempcpy.os)
 .debug_line    0x000000000000b1f8       0xd9 /home/yaohui.c/work/afl-pt/afl-2.42b/pt_mode/glibc-2.19/pt-build/libc_pic.a(stpcpy.os)
 .debug_line    0x000000000000b2d1      0x1aa /home/yaohui.c/work/afl-pt/afl-2.42b/pt_mode/glibc-2.19/pt-build/libc_pic.a(memcpy.os)
 .debug_line    0x000000000000b47b      0x1c5 /home/yaohui.c/work/afl-pt/afl-2.42b/pt_mode/glibc-2.19/pt-build/libc_pic.a(wordcopy.os)
 .debug_line    0x000000000000b640       0xc8 /home/yaohui.c/work/afl-pt/afl-2.42b/pt_mode/glibc-2.19/pt-build/libc_pic.a(rawmemchr.os)
 .debug_line    0x000000000000b708      0x45f /home/yaohui.c/work/afl-pt/afl-2.42b/pt_mode/glibc-2.19/pt-build/libc_pic.a(strcmp-ssse3.os)
 .debug_line    0x000000000000bb67      0x10c /home/yaohui.c/work/afl-pt/afl-2.42b/pt_mode/glibc-2.19/pt-build/libc_pic.a(strcmp-sse2-unaligned.os)
 .debug_line    0x000000000000bc73      0x500 /home/yaohui.c/work/afl-pt/afl-2.42b/pt_mode/glibc-2.19/pt-build/libc_pic.a(memcmp-sse4.os)
 .debug_line    0x000000000000c173      0x942 /home/yaohui.c/work/afl-pt/afl-2.42b/pt_mode/glibc-2.19/pt-build/libc_pic.a(memcpy-ssse3.os)
 .debug_line    0x000000000000cab5       0xe3 /home/yaohui.c/work/afl-pt/afl-2.42b/pt_mode/glibc-2.19/pt-build/libc_pic.a(memcpy-sse2-unaligned.os)
 .debug_line    0x000000000000cb98      0x943 /home/yaohui.c/work/afl-pt/afl-2.42b/pt_mode/glibc-2.19/pt-build/libc_pic.a(mempcpy-ssse3.os)
 .debug_line    0x000000000000d4db      0x99b /home/yaohui.c/work/afl-pt/afl-2.42b/pt_mode/glibc-2.19/pt-build/libc_pic.a(memmove-ssse3.os)
 .debug_line    0x000000000000de76      0x879 /home/yaohui.c/work/afl-pt/afl-2.42b/pt_mode/glibc-2.19/pt-build/libc_pic.a(mempcpy-ssse3-back.os)
 .debug_line    0x000000000000e6ef      0x882 /home/yaohui.c/work/afl-pt/afl-2.42b/pt_mode/glibc-2.19/pt-build/libc_pic.a(memmove-ssse3-back.os)
 .debug_line    0x000000000000ef71      0x627 /home/yaohui.c/work/afl-pt/afl-2.42b/pt_mode/glibc-2.19/pt-build/libc_pic.a(strcpy-ssse3.os)
 .debug_line    0x000000000000f598      0x627 /home/yaohui.c/work/afl-pt/afl-2.42b/pt_mode/glibc-2.19/pt-build/libc_pic.a(stpcpy-ssse3.os)
 .debug_line    0x000000000000fbbf      0x204 /home/yaohui.c/work/afl-pt/afl-2.42b/pt_mode/glibc-2.19/pt-build/libc_pic.a(strcpy-sse2-unaligned.os)
 .debug_line    0x000000000000fdc3      0x1e2 /home/yaohui.c/work/afl-pt/afl-2.42b/pt_mode/glibc-2.19/pt-build/libc_pic.a(stpcpy-sse2-unaligned.os)
 .debug_line    0x000000000000ffa5      0x111 /home/yaohui.c/work/afl-pt/afl-2.42b/pt_mode/glibc-2.19/pt-build/libc_pic.a(strchr-sse2-no-bsf.os)
 .debug_line    0x00000000000100b6      0x5cd /home/yaohui.c/work/afl-pt/afl-2.42b/pt_mode/glibc-2.19/pt-build/libc_pic.a(memcmp-ssse3.os)
 .debug_line    0x0000000000010683      0x40b /home/yaohui.c/work/afl-pt/afl-2.42b/pt_mode/glibc-2.19/pt-build/libc_pic.a(cacheinfo.os)
 .debug_line    0x0000000000010a8e      0x19c /home/yaohui.c/work/afl-pt/afl-2.42b/pt_mode/glibc-2.19/pt-build/libc_pic.a(closedir.os)
 .debug_line    0x0000000000010c2a      0x203 /home/yaohui.c/work/afl-pt/afl-2.42b/pt_mode/glibc-2.19/pt-build/libc_pic.a(readdir.os)
 .debug_line    0x0000000000010e2d      0x19b /home/yaohui.c/work/afl-pt/afl-2.42b/pt_mode/glibc-2.19/pt-build/libc_pic.a(rewinddir.os)
 .debug_line    0x0000000000010fc8      0x1de /home/yaohui.c/work/afl-pt/afl-2.42b/pt_mode/glibc-2.19/pt-build/libc_pic.a(getdents.os)
 .debug_line    0x00000000000111a6      0x211 /home/yaohui.c/work/afl-pt/afl-2.42b/pt_mode/glibc-2.19/pt-build/libc_pic.a(fdopendir.os)
 .debug_line    0x00000000000113b7       0x58 /home/yaohui.c/work/afl-pt/afl-2.42b/pt_mode/glibc-2.19/pt-build/libc_pic.a(uname.os)
 .debug_line    0x000000000001140f      0x20b /home/yaohui.c/work/afl-pt/afl-2.42b/pt_mode/glibc-2.19/pt-build/libc_pic.a(waitpid.os)
 .debug_line    0x000000000001161a       0xfc /home/yaohui.c/work/afl-pt/afl-2.42b/pt_mode/glibc-2.19/pt-build/libc_pic.a(_exit.os)
 .debug_line    0x0000000000011716      0x115 /home/yaohui.c/work/afl-pt/afl-2.42b/pt_mode/glibc-2.19/pt-build/libc_pic.a(getpid.os)
 .debug_line    0x000000000001182b       0x2a /home/yaohui.c/work/afl-pt/afl-2.42b/pt_mode/glibc-2.19/pt-build/libc_pic.a(environ.os)
 .debug_line    0x0000000000011855      0x14d /home/yaohui.c/work/afl-pt/afl-2.42b/pt_mode/glibc-2.19/pt-build/libc_pic.a(xstat.os)
 .debug_line    0x00000000000119a2      0x14e /home/yaohui.c/work/afl-pt/afl-2.42b/pt_mode/glibc-2.19/pt-build/libc_pic.a(fxstat.os)
 .debug_line    0x0000000000011af0      0x14e /home/yaohui.c/work/afl-pt/afl-2.42b/pt_mode/glibc-2.19/pt-build/libc_pic.a(lxstat.os)
 .debug_line    0x0000000000011c3e       0x5a /home/yaohui.c/work/afl-pt/afl-2.42b/pt_mode/glibc-2.19/pt-build/libc_pic.a(open.os)
 .debug_line    0x0000000000011c98       0x5a /home/yaohui.c/work/afl-pt/afl-2.42b/pt_mode/glibc-2.19/pt-build/libc_pic.a(read.os)
 .debug_line    0x0000000000011cf2       0x5a /home/yaohui.c/work/afl-pt/afl-2.42b/pt_mode/glibc-2.19/pt-build/libc_pic.a(write.os)
 .debug_line    0x0000000000011d4c       0x58 /home/yaohui.c/work/afl-pt/afl-2.42b/pt_mode/glibc-2.19/pt-build/libc_pic.a(access.os)
 .debug_line    0x0000000000011da4      0x276 /home/yaohui.c/work/afl-pt/afl-2.42b/pt_mode/glibc-2.19/pt-build/libc_pic.a(fcntl.os)
 .debug_line    0x000000000001201a       0x5a /home/yaohui.c/work/afl-pt/afl-2.42b/pt_mode/glibc-2.19/pt-build/libc_pic.a(close.os)
 .debug_line    0x0000000000012074       0x59 /home/yaohui.c/work/afl-pt/afl-2.42b/pt_mode/glibc-2.19/pt-build/libc_pic.a(mmap.os)
 .debug_line    0x00000000000120cd       0x58 /home/yaohui.c/work/afl-pt/afl-2.42b/pt_mode/glibc-2.19/pt-build/libc_pic.a(munmap.os)
 .debug_line    0x0000000000012125       0x58 /home/yaohui.c/work/afl-pt/afl-2.42b/pt_mode/glibc-2.19/pt-build/libc_pic.a(mprotect.os)
 .debug_line    0x000000000001217d       0x5a /home/yaohui.c/work/afl-pt/afl-2.42b/pt_mode/glibc-2.19/pt-build/libc_pic.a(llseek.os)
 .debug_line    0x00000000000121d7      0x2da /home/yaohui.c/work/afl-pt/afl-2.42b/pt_mode/glibc-2.19/pt-build/libc_pic.a(profil.os)
 .debug_line    0x00000000000124b1      0x1f6 /home/yaohui.c/work/afl-pt/afl-2.42b/pt_mode/glibc-2.19/pt-build/libc_pic.a(prof-freq.os)
 .debug_line    0x00000000000126a7       0x86 /home/yaohui.c/work/afl-pt/afl-2.42b/pt_mode/glibc-2.19/pt-build/libc_pic.a(libc-lowlevellock.os)
 .debug_line    0x000000000001272d       0x90 /home/yaohui.c/work/afl-pt/afl-2.42b/pt_mode/glibc-2.19/pt-build/libc_pic.a(libc-cancellation.os)
 .debug_line    0x00000000000127bd      0x166 /home/yaohui.c/work/afl-pt/afl-2.42b/pt_mode/glibc-2.19/pt-build/libc_pic.a(libc_multiple_threads.os)
 .debug_line    0x0000000000012923      0x19f /home/yaohui.c/work/afl-pt/afl-2.42b/pt_mode/glibc-2.19/pt-build/libc_pic.a(init-arch.os)
 .debug_line    0x0000000000012ac2      0x2b1 /home/yaohui.c/work/afl-pt/afl-2.42b/pt_mode/glibc-2.19/pt-build/libc_pic.a(sigaction.os)
 .debug_line    0x0000000000012d73       0x58 /home/yaohui.c/work/afl-pt/afl-2.42b/pt_mode/glibc-2.19/pt-build/libc_pic.a(setitimer.os)
 .debug_line    0x0000000000012dcb      0x496 /home/yaohui.c/work/afl-pt/afl-2.42b/pt_mode/glibc-2.19/pt-build/libc_pic.a(forward.os)
 .debug_line    0x0000000000013261      0x1e5 /home/yaohui.c/work/afl-pt/afl-2.42b/pt_mode/glibc-2.19/pt-build/libc_pic.a(exit.os)
 .debug_line    0x0000000000013446      0x1bf /home/yaohui.c/work/afl-pt/afl-2.42b/pt_mode/glibc-2.19/pt-build/libc_pic.a(cxa_atexit.os)
 .debug_line    0x0000000000013605      0x299 /home/yaohui.c/work/afl-pt/afl-2.42b/pt_mode/glibc-2.19/pt-build/libc_pic.a(cxa_thread_atexit_impl.os)

.debug_frame
 *(.debug_frame)

.debug_str      0x0000000000000000    0x32677
 *(.debug_str)
 .debug_str     0x0000000000000000    0x27aa6 /home/yaohui.c/work/afl-pt/afl-2.42b/pt_mode/glibc-2.19/pt-build/elf/dl-allobjs.os
 .debug_str     0x0000000000027aa6      0x467 /home/yaohui.c/work/afl-pt/afl-2.42b/pt_mode/glibc-2.19/pt-build/libc_pic.a(check_fds.os)
 .debug_str     0x0000000000027f0d      0x2af /home/yaohui.c/work/afl-pt/afl-2.42b/pt_mode/glibc-2.19/pt-build/libc_pic.a(errno.os)
 .debug_str     0x00000000000281bc      0x395 /home/yaohui.c/work/afl-pt/afl-2.42b/pt_mode/glibc-2.19/pt-build/libc_pic.a(memmove.os)
 .debug_str     0x0000000000028551      0x1bf /home/yaohui.c/work/afl-pt/afl-2.42b/pt_mode/glibc-2.19/pt-build/libc_pic.a(wordcopy.os)
 .debug_str     0x0000000000028710     0x14a1 /home/yaohui.c/work/afl-pt/afl-2.42b/pt_mode/glibc-2.19/pt-build/libc_pic.a(cacheinfo.os)
 .debug_str     0x0000000000029bb1      0x32b /home/yaohui.c/work/afl-pt/afl-2.42b/pt_mode/glibc-2.19/pt-build/libc_pic.a(closedir.os)
 .debug_str     0x0000000000029edc      0x3ce /home/yaohui.c/work/afl-pt/afl-2.42b/pt_mode/glibc-2.19/pt-build/libc_pic.a(readdir.os)
 .debug_str     0x000000000002a2aa      0x361 /home/yaohui.c/work/afl-pt/afl-2.42b/pt_mode/glibc-2.19/pt-build/libc_pic.a(rewinddir.os)
 .debug_str     0x000000000002a60b      0x3ed /home/yaohui.c/work/afl-pt/afl-2.42b/pt_mode/glibc-2.19/pt-build/libc_pic.a(getdents.os)
 .debug_str     0x000000000002a9f8      0x47c /home/yaohui.c/work/afl-pt/afl-2.42b/pt_mode/glibc-2.19/pt-build/libc_pic.a(fdopendir.os)
 .debug_str     0x000000000002ae74      0x404 /home/yaohui.c/work/afl-pt/afl-2.42b/pt_mode/glibc-2.19/pt-build/libc_pic.a(waitpid.os)
 .debug_str     0x000000000002b278      0x2ef /home/yaohui.c/work/afl-pt/afl-2.42b/pt_mode/glibc-2.19/pt-build/libc_pic.a(_exit.os)
 .debug_str     0x000000000002b567      0x343 /home/yaohui.c/work/afl-pt/afl-2.42b/pt_mode/glibc-2.19/pt-build/libc_pic.a(getpid.os)
 .debug_str     0x000000000002b8aa      0x15b /home/yaohui.c/work/afl-pt/afl-2.42b/pt_mode/glibc-2.19/pt-build/libc_pic.a(environ.os)
 .debug_str     0x000000000002ba05      0x412 /home/yaohui.c/work/afl-pt/afl-2.42b/pt_mode/glibc-2.19/pt-build/libc_pic.a(xstat.os)
 .debug_str     0x000000000002be17      0x410 /home/yaohui.c/work/afl-pt/afl-2.42b/pt_mode/glibc-2.19/pt-build/libc_pic.a(fxstat.os)
 .debug_str     0x000000000002c227      0x415 /home/yaohui.c/work/afl-pt/afl-2.42b/pt_mode/glibc-2.19/pt-build/libc_pic.a(lxstat.os)
 .debug_str     0x000000000002c63c      0x5d6 /home/yaohui.c/work/afl-pt/afl-2.42b/pt_mode/glibc-2.19/pt-build/libc_pic.a(fcntl.os)
 .debug_str     0x000000000002cc12      0x7ff /home/yaohui.c/work/afl-pt/afl-2.42b/pt_mode/glibc-2.19/pt-build/libc_pic.a(profil.os)
 .debug_str     0x000000000002d411      0xf03 /home/yaohui.c/work/afl-pt/afl-2.42b/pt_mode/glibc-2.19/pt-build/libc_pic.a(prof-freq.os)
 .debug_str     0x000000000002e314      0x45c /home/yaohui.c/work/afl-pt/afl-2.42b/pt_mode/glibc-2.19/pt-build/libc_pic.a(libc_multiple_threads.os)
 .debug_str     0x000000000002e770      0x453 /home/yaohui.c/work/afl-pt/afl-2.42b/pt_mode/glibc-2.19/pt-build/libc_pic.a(init-arch.os)
 .debug_str     0x000000000002ebc3      0x5c0 /home/yaohui.c/work/afl-pt/afl-2.42b/pt_mode/glibc-2.19/pt-build/libc_pic.a(sigaction.os)
 .debug_str     0x000000000002f183     0x1934 /home/yaohui.c/work/afl-pt/afl-2.42b/pt_mode/glibc-2.19/pt-build/libc_pic.a(forward.os)
 .debug_str     0x0000000000030ab7      0x954 /home/yaohui.c/work/afl-pt/afl-2.42b/pt_mode/glibc-2.19/pt-build/libc_pic.a(exit.os)
 .debug_str     0x000000000003140b      0x3db /home/yaohui.c/work/afl-pt/afl-2.42b/pt_mode/glibc-2.19/pt-build/libc_pic.a(cxa_atexit.os)
 .debug_str     0x00000000000317e6      0xe91 /home/yaohui.c/work/afl-pt/afl-2.42b/pt_mode/glibc-2.19/pt-build/libc_pic.a(cxa_thread_atexit_impl.os)

.debug_loc      0x0000000000000000    0x303cc
 *(.debug_loc)
 .debug_loc     0x0000000000000000    0x29f37 /home/yaohui.c/work/afl-pt/afl-2.42b/pt_mode/glibc-2.19/pt-build/elf/dl-allobjs.os
 .debug_loc     0x0000000000029f37       0xe1 /home/yaohui.c/work/afl-pt/afl-2.42b/pt_mode/glibc-2.19/pt-build/libc_pic.a(check_fds.os)
 .debug_loc     0x000000000002a018      0x69f /home/yaohui.c/work/afl-pt/afl-2.42b/pt_mode/glibc-2.19/pt-build/libc_pic.a(memmove.os)
 .debug_loc     0x000000000002a6b7     0x1024 /home/yaohui.c/work/afl-pt/afl-2.42b/pt_mode/glibc-2.19/pt-build/libc_pic.a(wordcopy.os)
 .debug_loc     0x000000000002b6db      0xc43 /home/yaohui.c/work/afl-pt/afl-2.42b/pt_mode/glibc-2.19/pt-build/libc_pic.a(cacheinfo.os)
 .debug_loc     0x000000000002c31e      0x1ce /home/yaohui.c/work/afl-pt/afl-2.42b/pt_mode/glibc-2.19/pt-build/libc_pic.a(readdir.os)
 .debug_loc     0x000000000002c4ec       0x4c /home/yaohui.c/work/afl-pt/afl-2.42b/pt_mode/glibc-2.19/pt-build/libc_pic.a(rewinddir.os)
 .debug_loc     0x000000000002c538      0x29f /home/yaohui.c/work/afl-pt/afl-2.42b/pt_mode/glibc-2.19/pt-build/libc_pic.a(getdents.os)
 .debug_loc     0x000000000002c7d7       0x95 /home/yaohui.c/work/afl-pt/afl-2.42b/pt_mode/glibc-2.19/pt-build/libc_pic.a(fdopendir.os)
 .debug_loc     0x000000000002c86c      0x15b /home/yaohui.c/work/afl-pt/afl-2.42b/pt_mode/glibc-2.19/pt-build/libc_pic.a(_exit.os)
 .debug_loc     0x000000000002c9c7       0xc8 /home/yaohui.c/work/afl-pt/afl-2.42b/pt_mode/glibc-2.19/pt-build/libc_pic.a(getpid.os)
 .debug_loc     0x000000000002ca8f      0x253 /home/yaohui.c/work/afl-pt/afl-2.42b/pt_mode/glibc-2.19/pt-build/libc_pic.a(xstat.os)
 .debug_loc     0x000000000002cce2      0x248 /home/yaohui.c/work/afl-pt/afl-2.42b/pt_mode/glibc-2.19/pt-build/libc_pic.a(fxstat.os)
 .debug_loc     0x000000000002cf2a      0x253 /home/yaohui.c/work/afl-pt/afl-2.42b/pt_mode/glibc-2.19/pt-build/libc_pic.a(lxstat.os)
 .debug_loc     0x000000000002d17d      0x94b /home/yaohui.c/work/afl-pt/afl-2.42b/pt_mode/glibc-2.19/pt-build/libc_pic.a(fcntl.os)
 .debug_loc     0x000000000002dac8      0x32d /home/yaohui.c/work/afl-pt/afl-2.42b/pt_mode/glibc-2.19/pt-build/libc_pic.a(profil.os)
 .debug_loc     0x000000000002ddf5      0x51f /home/yaohui.c/work/afl-pt/afl-2.42b/pt_mode/glibc-2.19/pt-build/libc_pic.a(init-arch.os)
 .debug_loc     0x000000000002e314      0x2bd /home/yaohui.c/work/afl-pt/afl-2.42b/pt_mode/glibc-2.19/pt-build/libc_pic.a(sigaction.os)
 .debug_loc     0x000000000002e5d1     0x1399 /home/yaohui.c/work/afl-pt/afl-2.42b/pt_mode/glibc-2.19/pt-build/libc_pic.a(forward.os)
 .debug_loc     0x000000000002f96a      0x204 /home/yaohui.c/work/afl-pt/afl-2.42b/pt_mode/glibc-2.19/pt-build/libc_pic.a(exit.os)
 .debug_loc     0x000000000002fb6e      0x6b2 /home/yaohui.c/work/afl-pt/afl-2.42b/pt_mode/glibc-2.19/pt-build/libc_pic.a(cxa_atexit.os)
 .debug_loc     0x0000000000030220      0x1ac /home/yaohui.c/work/afl-pt/afl-2.42b/pt_mode/glibc-2.19/pt-build/libc_pic.a(cxa_thread_atexit_impl.os)

.debug_macinfo
 *(.debug_macinfo)

.debug_weaknames
 *(.debug_weaknames)

.debug_funcnames
 *(.debug_funcnames)

.debug_typenames
 *(.debug_typenames)

.debug_varnames
 *(.debug_varnames)

.debug_pubtypes
 *(.debug_pubtypes)

.debug_ranges   0x0000000000000000     0x77f0
 *(.debug_ranges)
 .debug_ranges  0x0000000000000000     0x6c40 /home/yaohui.c/work/afl-pt/afl-2.42b/pt_mode/glibc-2.19/pt-build/elf/dl-allobjs.os
 .debug_ranges  0x0000000000006c40       0x40 /home/yaohui.c/work/afl-pt/afl-2.42b/pt_mode/glibc-2.19/pt-build/libc_pic.a(strcmp.os)
 .debug_ranges  0x0000000000006c80      0x110 /home/yaohui.c/work/afl-pt/afl-2.42b/pt_mode/glibc-2.19/pt-build/libc_pic.a(memmove.os)
 .debug_ranges  0x0000000000006d90      0x360 /home/yaohui.c/work/afl-pt/afl-2.42b/pt_mode/glibc-2.19/pt-build/libc_pic.a(cacheinfo.os)
 .debug_ranges  0x00000000000070f0       0xc0 /home/yaohui.c/work/afl-pt/afl-2.42b/pt_mode/glibc-2.19/pt-build/libc_pic.a(readdir.os)
 .debug_ranges  0x00000000000071b0       0x30 /home/yaohui.c/work/afl-pt/afl-2.42b/pt_mode/glibc-2.19/pt-build/libc_pic.a(rewinddir.os)
 .debug_ranges  0x00000000000071e0       0xb0 /home/yaohui.c/work/afl-pt/afl-2.42b/pt_mode/glibc-2.19/pt-build/libc_pic.a(getdents.os)
 .debug_ranges  0x0000000000007290       0xb0 /home/yaohui.c/work/afl-pt/afl-2.42b/pt_mode/glibc-2.19/pt-build/libc_pic.a(waitpid.os)
 .debug_ranges  0x0000000000007340       0x90 /home/yaohui.c/work/afl-pt/afl-2.42b/pt_mode/glibc-2.19/pt-build/libc_pic.a(_exit.os)
 .debug_ranges  0x00000000000073d0       0x60 /home/yaohui.c/work/afl-pt/afl-2.42b/pt_mode/glibc-2.19/pt-build/libc_pic.a(getpid.os)
 .debug_ranges  0x0000000000007430       0x30 /home/yaohui.c/work/afl-pt/afl-2.42b/pt_mode/glibc-2.19/pt-build/libc_pic.a(xstat.os)
 .debug_ranges  0x0000000000007460       0x30 /home/yaohui.c/work/afl-pt/afl-2.42b/pt_mode/glibc-2.19/pt-build/libc_pic.a(fxstat.os)
 .debug_ranges  0x0000000000007490       0x30 /home/yaohui.c/work/afl-pt/afl-2.42b/pt_mode/glibc-2.19/pt-build/libc_pic.a(lxstat.os)
 .debug_ranges  0x00000000000074c0       0xa0 /home/yaohui.c/work/afl-pt/afl-2.42b/pt_mode/glibc-2.19/pt-build/libc_pic.a(fcntl.os)
 .debug_ranges  0x0000000000007560       0xb0 /home/yaohui.c/work/afl-pt/afl-2.42b/pt_mode/glibc-2.19/pt-build/libc_pic.a(init-arch.os)
 .debug_ranges  0x0000000000007610       0x60 /home/yaohui.c/work/afl-pt/afl-2.42b/pt_mode/glibc-2.19/pt-build/libc_pic.a(sigaction.os)
 .debug_ranges  0x0000000000007670       0x90 /home/yaohui.c/work/afl-pt/afl-2.42b/pt_mode/glibc-2.19/pt-build/libc_pic.a(forward.os)
 .debug_ranges  0x0000000000007700       0x60 /home/yaohui.c/work/afl-pt/afl-2.42b/pt_mode/glibc-2.19/pt-build/libc_pic.a(exit.os)
 .debug_ranges  0x0000000000007760       0x60 /home/yaohui.c/work/afl-pt/afl-2.42b/pt_mode/glibc-2.19/pt-build/libc_pic.a(cxa_atexit.os)
 .debug_ranges  0x00000000000077c0       0x30 /home/yaohui.c/work/afl-pt/afl-2.42b/pt_mode/glibc-2.19/pt-build/libc_pic.a(cxa_thread_atexit_impl.os)

.debug_macro
 *(.debug_macro)

.gnu.attributes
 *(.gnu.attributes)
OUTPUT(/home/yaohui.c/work/afl-pt/afl-2.42b/pt_mode/glibc-2.19/pt-build/elf/librtld.map.o elf64-x86-64)
